
PWMtest.elf:     file format elf32-avr

Sections:
Idx Name          Size      VMA       LMA       File off  Algn
  0 .data         0000001e  00800200  000010b2  00001146  2**0
                  CONTENTS, ALLOC, LOAD, DATA
  1 .text         000010b2  00000000  00000000  00000094  2**1
                  CONTENTS, ALLOC, LOAD, READONLY, CODE
  2 .bss          0000001f  0080021e  0080021e  00001164  2**0
                  ALLOC
  3 .comment      0000005c  00000000  00000000  00001164  2**0
                  CONTENTS, READONLY
  4 .note.gnu.avr.deviceinfo 00000040  00000000  00000000  000011c0  2**2
                  CONTENTS, READONLY
  5 .debug_aranges 000000f8  00000000  00000000  00001200  2**0
                  CONTENTS, READONLY, DEBUGGING
  6 .debug_info   00000ab1  00000000  00000000  000012f8  2**0
                  CONTENTS, READONLY, DEBUGGING
  7 .debug_abbrev 0000054c  00000000  00000000  00001da9  2**0
                  CONTENTS, READONLY, DEBUGGING
  8 .debug_line   00000b58  00000000  00000000  000022f5  2**0
                  CONTENTS, READONLY, DEBUGGING
  9 .debug_frame  00000220  00000000  00000000  00002e50  2**2
                  CONTENTS, READONLY, DEBUGGING
 10 .debug_str    0000051f  00000000  00000000  00003070  2**0
                  CONTENTS, READONLY, DEBUGGING
 11 .debug_loc    00000421  00000000  00000000  0000358f  2**0
                  CONTENTS, READONLY, DEBUGGING
 12 .debug_ranges 000000b8  00000000  00000000  000039b0  2**0
                  CONTENTS, READONLY, DEBUGGING

Disassembly of section .text:

00000000 <__vectors>:
       0:	71 c0       	rjmp	.+226    	; 0xe4 <__ctors_end>
       2:	00 00       	nop
       4:	8e c0       	rjmp	.+284    	; 0x122 <__bad_interrupt>
       6:	00 00       	nop
       8:	8c c0       	rjmp	.+280    	; 0x122 <__bad_interrupt>
       a:	00 00       	nop
       c:	8a c0       	rjmp	.+276    	; 0x122 <__bad_interrupt>
       e:	00 00       	nop
      10:	88 c0       	rjmp	.+272    	; 0x122 <__bad_interrupt>
      12:	00 00       	nop
      14:	86 c0       	rjmp	.+268    	; 0x122 <__bad_interrupt>
      16:	00 00       	nop
      18:	84 c0       	rjmp	.+264    	; 0x122 <__bad_interrupt>
      1a:	00 00       	nop
      1c:	82 c0       	rjmp	.+260    	; 0x122 <__bad_interrupt>
      1e:	00 00       	nop
      20:	80 c0       	rjmp	.+256    	; 0x122 <__bad_interrupt>
      22:	00 00       	nop
      24:	03 c1       	rjmp	.+518    	; 0x22c <__vector_9>
      26:	00 00       	nop
      28:	1e c1       	rjmp	.+572    	; 0x266 <__vector_10>
      2a:	00 00       	nop
      2c:	7a c0       	rjmp	.+244    	; 0x122 <__bad_interrupt>
      2e:	00 00       	nop
      30:	78 c0       	rjmp	.+240    	; 0x122 <__bad_interrupt>
      32:	00 00       	nop
      34:	76 c0       	rjmp	.+236    	; 0x122 <__bad_interrupt>
      36:	00 00       	nop
      38:	74 c0       	rjmp	.+232    	; 0x122 <__bad_interrupt>
      3a:	00 00       	nop
      3c:	72 c0       	rjmp	.+228    	; 0x122 <__bad_interrupt>
      3e:	00 00       	nop
      40:	70 c0       	rjmp	.+224    	; 0x122 <__bad_interrupt>
      42:	00 00       	nop
      44:	6e c0       	rjmp	.+220    	; 0x122 <__bad_interrupt>
      46:	00 00       	nop
      48:	6c c0       	rjmp	.+216    	; 0x122 <__bad_interrupt>
      4a:	00 00       	nop
      4c:	6a c0       	rjmp	.+212    	; 0x122 <__bad_interrupt>
      4e:	00 00       	nop
      50:	68 c0       	rjmp	.+208    	; 0x122 <__bad_interrupt>
      52:	00 00       	nop
      54:	66 c0       	rjmp	.+204    	; 0x122 <__bad_interrupt>
      56:	00 00       	nop
      58:	64 c0       	rjmp	.+200    	; 0x122 <__bad_interrupt>
      5a:	00 00       	nop
      5c:	62 c0       	rjmp	.+196    	; 0x122 <__bad_interrupt>
      5e:	00 00       	nop
      60:	60 c0       	rjmp	.+192    	; 0x122 <__bad_interrupt>
      62:	00 00       	nop
      64:	5e c0       	rjmp	.+188    	; 0x122 <__bad_interrupt>
      66:	00 00       	nop
      68:	5c c0       	rjmp	.+184    	; 0x122 <__bad_interrupt>
      6a:	00 00       	nop
      6c:	5a c0       	rjmp	.+180    	; 0x122 <__bad_interrupt>
      6e:	00 00       	nop
      70:	58 c0       	rjmp	.+176    	; 0x122 <__bad_interrupt>
      72:	00 00       	nop
      74:	56 c0       	rjmp	.+172    	; 0x122 <__bad_interrupt>
      76:	00 00       	nop
      78:	54 c0       	rjmp	.+168    	; 0x122 <__bad_interrupt>
      7a:	00 00       	nop
      7c:	52 c0       	rjmp	.+164    	; 0x122 <__bad_interrupt>
      7e:	00 00       	nop
      80:	50 c0       	rjmp	.+160    	; 0x122 <__bad_interrupt>
      82:	00 00       	nop
      84:	4e c0       	rjmp	.+156    	; 0x122 <__bad_interrupt>
      86:	00 00       	nop
      88:	4c c0       	rjmp	.+152    	; 0x122 <__bad_interrupt>
      8a:	00 00       	nop
      8c:	de c2       	rjmp	.+1468   	; 0x64a <__vector_35>
      8e:	00 00       	nop
      90:	48 c0       	rjmp	.+144    	; 0x122 <__bad_interrupt>
      92:	00 00       	nop
      94:	46 c0       	rjmp	.+140    	; 0x122 <__bad_interrupt>
      96:	00 00       	nop
      98:	44 c0       	rjmp	.+136    	; 0x122 <__bad_interrupt>
      9a:	00 00       	nop
      9c:	42 c0       	rjmp	.+132    	; 0x122 <__bad_interrupt>
      9e:	00 00       	nop
      a0:	40 c0       	rjmp	.+128    	; 0x122 <__bad_interrupt>
      a2:	00 00       	nop
      a4:	3e c0       	rjmp	.+124    	; 0x122 <__bad_interrupt>
      a6:	00 00       	nop
      a8:	3c c0       	rjmp	.+120    	; 0x122 <__bad_interrupt>
      aa:	00 00       	nop
      ac:	3a c0       	rjmp	.+116    	; 0x122 <__bad_interrupt>
      ae:	00 00       	nop
      b0:	38 c0       	rjmp	.+112    	; 0x122 <__bad_interrupt>
      b2:	00 00       	nop
      b4:	36 c0       	rjmp	.+108    	; 0x122 <__bad_interrupt>
      b6:	00 00       	nop
      b8:	34 c0       	rjmp	.+104    	; 0x122 <__bad_interrupt>
      ba:	00 00       	nop
      bc:	32 c0       	rjmp	.+100    	; 0x122 <__bad_interrupt>
      be:	00 00       	nop
      c0:	30 c0       	rjmp	.+96     	; 0x122 <__bad_interrupt>
      c2:	00 00       	nop
      c4:	2e c0       	rjmp	.+92     	; 0x122 <__bad_interrupt>
      c6:	00 00       	nop
      c8:	2c c0       	rjmp	.+88     	; 0x122 <__bad_interrupt>
      ca:	00 00       	nop
      cc:	2a c0       	rjmp	.+84     	; 0x122 <__bad_interrupt>
      ce:	00 00       	nop
      d0:	28 c0       	rjmp	.+80     	; 0x122 <__bad_interrupt>
      d2:	00 00       	nop
      d4:	26 c0       	rjmp	.+76     	; 0x122 <__bad_interrupt>
      d6:	00 00       	nop
      d8:	24 c0       	rjmp	.+72     	; 0x122 <__bad_interrupt>
      da:	00 00       	nop
      dc:	22 c0       	rjmp	.+68     	; 0x122 <__bad_interrupt>
      de:	00 00       	nop
      e0:	20 c0       	rjmp	.+64     	; 0x122 <__bad_interrupt>
	...

000000e4 <__ctors_end>:
      e4:	11 24       	eor	r1, r1
      e6:	1f be       	out	0x3f, r1	; 63
      e8:	cf ef       	ldi	r28, 0xFF	; 255
      ea:	d1 e2       	ldi	r29, 0x21	; 33
      ec:	de bf       	out	0x3e, r29	; 62
      ee:	cd bf       	out	0x3d, r28	; 61
      f0:	00 e0       	ldi	r16, 0x00	; 0
      f2:	0c bf       	out	0x3c, r16	; 60

000000f4 <__do_copy_data>:
      f4:	12 e0       	ldi	r17, 0x02	; 2
      f6:	a0 e0       	ldi	r26, 0x00	; 0
      f8:	b2 e0       	ldi	r27, 0x02	; 2
      fa:	e2 eb       	ldi	r30, 0xB2	; 178
      fc:	f0 e1       	ldi	r31, 0x10	; 16
      fe:	00 e0       	ldi	r16, 0x00	; 0
     100:	0b bf       	out	0x3b, r16	; 59
     102:	02 c0       	rjmp	.+4      	; 0x108 <__do_copy_data+0x14>
     104:	07 90       	elpm	r0, Z+
     106:	0d 92       	st	X+, r0
     108:	ae 31       	cpi	r26, 0x1E	; 30
     10a:	b1 07       	cpc	r27, r17
     10c:	d9 f7       	brne	.-10     	; 0x104 <__do_copy_data+0x10>

0000010e <__do_clear_bss>:
     10e:	22 e0       	ldi	r18, 0x02	; 2
     110:	ae e1       	ldi	r26, 0x1E	; 30
     112:	b2 e0       	ldi	r27, 0x02	; 2
     114:	01 c0       	rjmp	.+2      	; 0x118 <.do_clear_bss_start>

00000116 <.do_clear_bss_loop>:
     116:	1d 92       	st	X+, r1

00000118 <.do_clear_bss_start>:
     118:	ad 33       	cpi	r26, 0x3D	; 61
     11a:	b2 07       	cpc	r27, r18
     11c:	e1 f7       	brne	.-8      	; 0x116 <.do_clear_bss_loop>
     11e:	6b d4       	rcall	.+2262   	; 0x9f6 <main>
     120:	c6 c7       	rjmp	.+3980   	; 0x10ae <_exit>

00000122 <__bad_interrupt>:
     122:	6e cf       	rjmp	.-292    	; 0x0 <__vectors>

00000124 <_ZN3escC1Ev>:
esc 3 = 0C5A
esc 4 = 0C5B
*/

//constructor
esc::esc()
     124:	08 95       	ret

00000126 <_ZN3esc10initializeEv>:
}

void esc::initialize()
{
  //Timer/Counter 4/5 set to non-inverted Phase Correct PWM (8 bits resolution)
  TCCR4A |= (1 << COM4A1) | (1 << COM4B1) | (1 << WGM41);
     126:	e0 ea       	ldi	r30, 0xA0	; 160
     128:	f0 e0       	ldi	r31, 0x00	; 0
     12a:	80 81       	ld	r24, Z
     12c:	82 6a       	ori	r24, 0xA2	; 162
     12e:	80 83       	st	Z, r24
  TCCR5A |= (1 << COM5A1) | (1 << COM5B1) | (1 << WGM51);
     130:	e0 e2       	ldi	r30, 0x20	; 32
     132:	f1 e0       	ldi	r31, 0x01	; 1
     134:	80 81       	ld	r24, Z
     136:	82 6a       	ori	r24, 0xA2	; 162
     138:	80 83       	st	Z, r24

  //wave generator mode à phase correct full resolution et Prescaler = 1

  TCCR4B |= (1 << WGM43) | (1 << CS40) ;
     13a:	e1 ea       	ldi	r30, 0xA1	; 161
     13c:	f0 e0       	ldi	r31, 0x00	; 0
     13e:	80 81       	ld	r24, Z
     140:	81 61       	ori	r24, 0x11	; 17
     142:	80 83       	st	Z, r24
  TCCR5B |= (1 << WGM53) | (1 << CS50) ;
     144:	e1 e2       	ldi	r30, 0x21	; 33
     146:	f1 e0       	ldi	r31, 0x01	; 1
     148:	80 81       	ld	r24, Z
     14a:	81 61       	ori	r24, 0x11	; 17
     14c:	80 83       	st	Z, r24

  //Force Output Compare disabled
  TCCR4C = 0;
     14e:	10 92 a2 00 	sts	0x00A2, r1	; 0x8000a2 <__TEXT_REGION_LENGTH__+0x7000a2>
  TCCR5C = 0;
     152:	10 92 22 01 	sts	0x0122, r1	; 0x800122 <__TEXT_REGION_LENGTH__+0x700122>
  //régler TOP à 4096
  //ICR4H = 0x10;
  //ICR4L = 0x00;
  //ICR5H = 0x10;
  //ICR5L = 0x00;
    ICR4 = 2000;
     156:	80 ed       	ldi	r24, 0xD0	; 208
     158:	97 e0       	ldi	r25, 0x07	; 7
     15a:	90 93 a7 00 	sts	0x00A7, r25	; 0x8000a7 <__TEXT_REGION_LENGTH__+0x7000a7>
     15e:	80 93 a6 00 	sts	0x00A6, r24	; 0x8000a6 <__TEXT_REGION_LENGTH__+0x7000a6>
    ICR5 = 2000;
     162:	90 93 27 01 	sts	0x0127, r25	; 0x800127 <__TEXT_REGION_LENGTH__+0x700127>
     166:	80 93 26 01 	sts	0x0126, r24	; 0x800126 <__TEXT_REGION_LENGTH__+0x700126>
  
  //Set ESCs speed to 0
  //TODO need to select right initial pulse width such that the ESC get armed
  OCR4A = 1200;
     16a:	80 eb       	ldi	r24, 0xB0	; 176
     16c:	94 e0       	ldi	r25, 0x04	; 4
     16e:	90 93 a9 00 	sts	0x00A9, r25	; 0x8000a9 <__TEXT_REGION_LENGTH__+0x7000a9>
     172:	80 93 a8 00 	sts	0x00A8, r24	; 0x8000a8 <__TEXT_REGION_LENGTH__+0x7000a8>
  OCR4B = 1200;
     176:	90 93 ab 00 	sts	0x00AB, r25	; 0x8000ab <__TEXT_REGION_LENGTH__+0x7000ab>
     17a:	80 93 aa 00 	sts	0x00AA, r24	; 0x8000aa <__TEXT_REGION_LENGTH__+0x7000aa>
  OCR5A = 1200;
     17e:	90 93 29 01 	sts	0x0129, r25	; 0x800129 <__TEXT_REGION_LENGTH__+0x700129>
     182:	80 93 28 01 	sts	0x0128, r24	; 0x800128 <__TEXT_REGION_LENGTH__+0x700128>
  OCR5B = 1200;
     186:	90 93 2b 01 	sts	0x012B, r25	; 0x80012b <__TEXT_REGION_LENGTH__+0x70012b>
     18a:	80 93 2a 01 	sts	0x012A, r24	; 0x80012a <__TEXT_REGION_LENGTH__+0x70012a>

  //Set Pins to output
  DDRL |= (1<<PL4) | (1<<PL3); 
     18e:	ea e0       	ldi	r30, 0x0A	; 10
     190:	f1 e0       	ldi	r31, 0x01	; 1
     192:	80 81       	ld	r24, Z
     194:	88 61       	ori	r24, 0x18	; 24
     196:	80 83       	st	Z, r24
  DDRH |= (1<<PH4) | (1<<PH3);  
     198:	e1 e0       	ldi	r30, 0x01	; 1
     19a:	f1 e0       	ldi	r31, 0x01	; 1
     19c:	80 81       	ld	r24, Z
     19e:	88 61       	ori	r24, 0x18	; 24
     1a0:	80 83       	st	Z, r24
  
  //Timer 4/5 set to 0
  TCNT4H = 0;
     1a2:	10 92 a5 00 	sts	0x00A5, r1	; 0x8000a5 <__TEXT_REGION_LENGTH__+0x7000a5>
  TCNT4L = 0;
     1a6:	10 92 a4 00 	sts	0x00A4, r1	; 0x8000a4 <__TEXT_REGION_LENGTH__+0x7000a4>
  TCNT5H = 0;
     1aa:	10 92 25 01 	sts	0x0125, r1	; 0x800125 <__TEXT_REGION_LENGTH__+0x700125>
  TCNT5L = 0;
     1ae:	10 92 24 01 	sts	0x0124, r1	; 0x800124 <__TEXT_REGION_LENGTH__+0x700124>
     1b2:	08 95       	ret

000001b4 <_Z19initializeInterruptv>:
static uint16_t count_ch_1, count_ch_2, count_ch_3, count_ch_4;
static bool timer_3_ovf, ch_1_ovf_rising, ch_2_ovf_rising, ch_3_ovf_rising, ch_4_ovf_rising;

void initializeInterrupt()
{
	PCICR |= (1<<PCIE0) | (1<<PCIE1); /* enable pin change interrupt 0 and 1 */
     1b4:	e8 e6       	ldi	r30, 0x68	; 104
     1b6:	f0 e0       	ldi	r31, 0x00	; 0
     1b8:	80 81       	ld	r24, Z
     1ba:	83 60       	ori	r24, 0x03	; 3
     1bc:	80 83       	st	Z, r24
	PCMSK0 |= (1<<PCINT4); /* enable pin B0 to trigger PCINT0 */
     1be:	eb e6       	ldi	r30, 0x6B	; 107
     1c0:	f0 e0       	ldi	r31, 0x00	; 0
     1c2:	80 81       	ld	r24, Z
     1c4:	80 61       	ori	r24, 0x10	; 16
     1c6:	80 83       	st	Z, r24
	PCMSK1 |= (1<<PCINT12) | (1<<PCINT13) | (1<<PCINT14) | (1<<PCINT15); /* enable pin J3-J6 to trigger PCINT1 */
     1c8:	ec e6       	ldi	r30, 0x6C	; 108
     1ca:	f0 e0       	ldi	r31, 0x00	; 0
     1cc:	80 81       	ld	r24, Z
     1ce:	80 6f       	ori	r24, 0xF0	; 240
     1d0:	80 83       	st	Z, r24
	sei();	/* Turn interrupts on */
     1d2:	78 94       	sei
     1d4:	08 95       	ret

000001d6 <_Z24initializecounterPWMreadv>:
}

void initializecounterPWMread()
{
	last_ch_1 = false, last_ch_2 = false, last_ch_3 = false, last_ch_4 = false;
     1d6:	10 92 3a 02 	sts	0x023A, r1	; 0x80023a <_ZL9last_ch_1>
     1da:	10 92 39 02 	sts	0x0239, r1	; 0x800239 <_ZL9last_ch_2>
     1de:	10 92 38 02 	sts	0x0238, r1	; 0x800238 <_ZL9last_ch_3>
     1e2:	10 92 37 02 	sts	0x0237, r1	; 0x800237 <_ZL9last_ch_4>
	ch_1_counting = false, ch_2_counting = false, ch_3_counting = false, ch_4_counting = false;
     1e6:	10 92 36 02 	sts	0x0236, r1	; 0x800236 <_ZL13ch_1_counting>
     1ea:	10 92 35 02 	sts	0x0235, r1	; 0x800235 <_ZL13ch_2_counting>
     1ee:	10 92 34 02 	sts	0x0234, r1	; 0x800234 <_ZL13ch_3_counting>
     1f2:	10 92 33 02 	sts	0x0233, r1	; 0x800233 <_ZL13ch_4_counting>
	ch_1_pw = 0, ch_2_pw = 0, ch_3_pw = 0, ch_4_pw = 0;
     1f6:	10 92 32 02 	sts	0x0232, r1	; 0x800232 <ch_1_pw+0x1>
     1fa:	10 92 31 02 	sts	0x0231, r1	; 0x800231 <ch_1_pw>
     1fe:	10 92 30 02 	sts	0x0230, r1	; 0x800230 <ch_2_pw+0x1>
     202:	10 92 2f 02 	sts	0x022F, r1	; 0x80022f <ch_2_pw>
     206:	10 92 2e 02 	sts	0x022E, r1	; 0x80022e <ch_3_pw+0x1>
     20a:	10 92 2d 02 	sts	0x022D, r1	; 0x80022d <ch_3_pw>
     20e:	10 92 2c 02 	sts	0x022C, r1	; 0x80022c <ch_4_pw+0x1>
     212:	10 92 2b 02 	sts	0x022B, r1	; 0x80022b <ch_4_pw>
	TCCR3B |= (1 << CS30); //set-up counter in normal mode with prescaler = 1
     216:	e1 e9       	ldi	r30, 0x91	; 145
     218:	f0 e0       	ldi	r31, 0x00	; 0
     21a:	80 81       	ld	r24, Z
     21c:	81 60       	ori	r24, 0x01	; 1
     21e:	80 83       	st	Z, r24
	TIMSK3 |= (1 << TOIE3); // enable interrupt on overflow
     220:	e1 e7       	ldi	r30, 0x71	; 113
     222:	f0 e0       	ldi	r31, 0x00	; 0
     224:	80 81       	ld	r24, Z
     226:	81 60       	ori	r24, 0x01	; 1
     228:	80 83       	st	Z, r24
     22a:	08 95       	ret

0000022c <__vector_9>:
}

ISR(PCINT0_vect) {
     22c:	1f 92       	push	r1
     22e:	0f 92       	push	r0
     230:	0f b6       	in	r0, 0x3f	; 63
     232:	0f 92       	push	r0
     234:	11 24       	eor	r1, r1
     236:	8f 93       	push	r24
     238:	9f 93       	push	r25
	if (PINB & 0b00010000) button_rising = true;
     23a:	1c 9b       	sbis	0x03, 4	; 3
     23c:	04 c0       	rjmp	.+8      	; 0x246 <__vector_9+0x1a>
     23e:	81 e0       	ldi	r24, 0x01	; 1
     240:	80 93 3c 02 	sts	0x023C, r24	; 0x80023c <button_rising>
     244:	03 c0       	rjmp	.+6      	; 0x24c <__vector_9+0x20>
	else button_falling = true;
     246:	81 e0       	ldi	r24, 0x01	; 1
     248:	80 93 3b 02 	sts	0x023B, r24	; 0x80023b <button_falling>
	#else
		//round up by default
		__ticks_dc = (uint32_t)(ceil(fabs(__tmp)));
	#endif

	__builtin_avr_delay_cycles(__ticks_dc);
     24c:	83 ec       	ldi	r24, 0xC3	; 195
     24e:	99 e0       	ldi	r25, 0x09	; 9
     250:	01 97       	sbiw	r24, 0x01	; 1
     252:	f1 f7       	brne	.-4      	; 0x250 <__vector_9+0x24>
     254:	00 c0       	rjmp	.+0      	; 0x256 <__vector_9+0x2a>
     256:	00 00       	nop
	_delay_ms(10); //debounce
}
     258:	9f 91       	pop	r25
     25a:	8f 91       	pop	r24
     25c:	0f 90       	pop	r0
     25e:	0f be       	out	0x3f, r0	; 63
     260:	0f 90       	pop	r0
     262:	1f 90       	pop	r1
     264:	18 95       	reti

00000266 <__vector_10>:

ISR(PCINT1_vect) {
     266:	1f 92       	push	r1
     268:	0f 92       	push	r0
     26a:	0f b6       	in	r0, 0x3f	; 63
     26c:	0f 92       	push	r0
     26e:	11 24       	eor	r1, r1
     270:	2f 93       	push	r18
     272:	3f 93       	push	r19
     274:	4f 93       	push	r20
     276:	6f 93       	push	r22
     278:	7f 93       	push	r23
     27a:	8f 93       	push	r24
     27c:	9f 93       	push	r25
	//LCD_WriteString("PCINT1");
	//channel_1
	if (PINJ & 0b00001000 && last_ch_1 == false) //Rising edge
     27e:	80 91 03 01 	lds	r24, 0x0103	; 0x800103 <__TEXT_REGION_LENGTH__+0x700103>
     282:	83 ff       	sbrs	r24, 3
     284:	6b c1       	rjmp	.+726    	; 0x55c <__FUSE_REGION_LENGTH__+0x15c>
     286:	80 91 3a 02 	lds	r24, 0x023A	; 0x80023a <_ZL9last_ch_1>
     28a:	81 11       	cpse	r24, r1
     28c:	bf c1       	rjmp	.+894    	; 0x60c <__FUSE_REGION_LENGTH__+0x20c>
     28e:	6b c1       	rjmp	.+726    	; 0x566 <__FUSE_REGION_LENGTH__+0x166>
	{	last_ch_1 = true;
		ch_1_counting = true;
		//verify if there is an overflow before starting to count
		if(timer_3_ovf) ch_1_ovf_rising = true;
     290:	81 e0       	ldi	r24, 0x01	; 1
     292:	80 93 21 02 	sts	0x0221, r24	; 0x800221 <_ZL15ch_1_ovf_rising>
     296:	02 c0       	rjmp	.+4      	; 0x29c <__vector_10+0x36>
		else ch_1_ovf_rising = false;
     298:	10 92 21 02 	sts	0x0221, r1	; 0x800221 <_ZL15ch_1_ovf_rising>
		//record the counter value for the rising edge
		count_ch_1 = TCNT3L | TCNT3H << 8;		
     29c:	80 91 94 00 	lds	r24, 0x0094	; 0x800094 <__TEXT_REGION_LENGTH__+0x700094>
     2a0:	20 91 95 00 	lds	r18, 0x0095	; 0x800095 <__TEXT_REGION_LENGTH__+0x700095>
     2a4:	90 e0       	ldi	r25, 0x00	; 0
     2a6:	92 2b       	or	r25, r18
     2a8:	90 93 2a 02 	sts	0x022A, r25	; 0x80022a <_ZL10count_ch_1+0x1>
     2ac:	80 93 29 02 	sts	0x0229, r24	; 0x800229 <_ZL10count_ch_1>
     2b0:	3f c0       	rjmp	.+126    	; 0x330 <__vector_10+0xca>
	}
	else if (!(PINJ & 0b00001000) && last_ch_1 == true) //Falling edge
     2b2:	80 91 3a 02 	lds	r24, 0x023A	; 0x80023a <_ZL9last_ch_1>
     2b6:	81 11       	cpse	r24, r1
     2b8:	60 c1       	rjmp	.+704    	; 0x57a <__FUSE_REGION_LENGTH__+0x17a>
     2ba:	3a c0       	rjmp	.+116    	; 0x330 <__vector_10+0xca>
	{	last_ch_1 = false;
		//subtract current counter to old one in count_ch_1 and store variable in ch_1_pw
		//only if there is no overflow at rising and falling edge or if there is an overflow for both
		if((!timer_3_ovf && !ch_1_ovf_rising) || (timer_3_ovf && ch_1_ovf_rising)) 
     2bc:	80 91 21 02 	lds	r24, 0x0221	; 0x800221 <_ZL15ch_1_ovf_rising>
     2c0:	81 11       	cpse	r24, r1
     2c2:	16 c0       	rjmp	.+44     	; 0x2f0 <__vector_10+0x8a>
     2c4:	04 c0       	rjmp	.+8      	; 0x2ce <__vector_10+0x68>
     2c6:	80 91 21 02 	lds	r24, 0x0221	; 0x800221 <_ZL15ch_1_ovf_rising>
     2ca:	88 23       	and	r24, r24
     2cc:	89 f0       	breq	.+34     	; 0x2f0 <__vector_10+0x8a>
			ch_1_pw = (TCNT3L | TCNT3H << 8) - count_ch_1;
     2ce:	80 91 94 00 	lds	r24, 0x0094	; 0x800094 <__TEXT_REGION_LENGTH__+0x700094>
     2d2:	20 91 95 00 	lds	r18, 0x0095	; 0x800095 <__TEXT_REGION_LENGTH__+0x700095>
     2d6:	90 e0       	ldi	r25, 0x00	; 0
     2d8:	92 2b       	or	r25, r18
     2da:	20 91 29 02 	lds	r18, 0x0229	; 0x800229 <_ZL10count_ch_1>
     2de:	30 91 2a 02 	lds	r19, 0x022A	; 0x80022a <_ZL10count_ch_1+0x1>
     2e2:	82 1b       	sub	r24, r18
     2e4:	93 0b       	sbc	r25, r19
     2e6:	90 93 32 02 	sts	0x0232, r25	; 0x800232 <ch_1_pw+0x1>
     2ea:	80 93 31 02 	sts	0x0231, r24	; 0x800231 <ch_1_pw>
     2ee:	10 c0       	rjmp	.+32     	; 0x310 <__vector_10+0xaa>
		//else there is an overflow calculate the real pulse time by adding 2^16
		else 
			ch_1_pw = 65535 - count_ch_1 + (TCNT3L | TCNT3H << 8) + 1;				
     2f0:	80 91 94 00 	lds	r24, 0x0094	; 0x800094 <__TEXT_REGION_LENGTH__+0x700094>
     2f4:	20 91 95 00 	lds	r18, 0x0095	; 0x800095 <__TEXT_REGION_LENGTH__+0x700095>
     2f8:	90 e0       	ldi	r25, 0x00	; 0
     2fa:	92 2b       	or	r25, r18
     2fc:	20 91 29 02 	lds	r18, 0x0229	; 0x800229 <_ZL10count_ch_1>
     300:	30 91 2a 02 	lds	r19, 0x022A	; 0x80022a <_ZL10count_ch_1+0x1>
     304:	82 1b       	sub	r24, r18
     306:	93 0b       	sbc	r25, r19
     308:	90 93 32 02 	sts	0x0232, r25	; 0x800232 <ch_1_pw+0x1>
     30c:	80 93 31 02 	sts	0x0231, r24	; 0x800231 <ch_1_pw>
		ch_1_counting = false;
     310:	10 92 36 02 	sts	0x0236, r1	; 0x800236 <_ZL13ch_1_counting>
		//remove the overflow flag only when no channel is counting to avoid problems 
		//when overflow happens when 2 channels are counting
		if (!ch_1_counting && !ch_2_counting && !ch_3_counting && !ch_4_counting) timer_3_ovf=false;
     314:	80 91 35 02 	lds	r24, 0x0235	; 0x800235 <_ZL13ch_2_counting>
     318:	81 11       	cpse	r24, r1
     31a:	0a c0       	rjmp	.+20     	; 0x330 <__vector_10+0xca>
     31c:	80 91 34 02 	lds	r24, 0x0234	; 0x800234 <_ZL13ch_3_counting>
     320:	81 11       	cpse	r24, r1
     322:	06 c0       	rjmp	.+12     	; 0x330 <__vector_10+0xca>
     324:	80 91 33 02 	lds	r24, 0x0233	; 0x800233 <_ZL13ch_4_counting>
     328:	81 11       	cpse	r24, r1
     32a:	02 c0       	rjmp	.+4      	; 0x330 <__vector_10+0xca>
     32c:	10 92 22 02 	sts	0x0222, r1	; 0x800222 <_ZL11timer_3_ovf>
	}
	
	
	//channel_2
	if (PINJ & 0b00010000 && last_ch_2 == false) //Rising edge
     330:	80 91 03 01 	lds	r24, 0x0103	; 0x800103 <__TEXT_REGION_LENGTH__+0x700103>
     334:	84 ff       	sbrs	r24, 4
     336:	32 c1       	rjmp	.+612    	; 0x59c <__FUSE_REGION_LENGTH__+0x19c>
     338:	80 91 39 02 	lds	r24, 0x0239	; 0x800239 <_ZL9last_ch_2>
     33c:	81 11       	cpse	r24, r1
     33e:	6b c1       	rjmp	.+726    	; 0x616 <__FUSE_REGION_LENGTH__+0x216>
     340:	23 c1       	rjmp	.+582    	; 0x588 <__FUSE_REGION_LENGTH__+0x188>
	{	last_ch_2 = true;
		ch_2_counting = true;
		//verify if there is an overflow before starting to count
		if(timer_3_ovf) ch_2_ovf_rising = true;
     342:	81 e0       	ldi	r24, 0x01	; 1
     344:	80 93 20 02 	sts	0x0220, r24	; 0x800220 <_ZL15ch_2_ovf_rising>
     348:	02 c0       	rjmp	.+4      	; 0x34e <__vector_10+0xe8>
		else ch_2_ovf_rising = false;
     34a:	10 92 20 02 	sts	0x0220, r1	; 0x800220 <_ZL15ch_2_ovf_rising>
		//record the counter value for the rising edge
		count_ch_2 = TCNT3L | TCNT3H << 8;
     34e:	80 91 94 00 	lds	r24, 0x0094	; 0x800094 <__TEXT_REGION_LENGTH__+0x700094>
     352:	20 91 95 00 	lds	r18, 0x0095	; 0x800095 <__TEXT_REGION_LENGTH__+0x700095>
     356:	90 e0       	ldi	r25, 0x00	; 0
     358:	92 2b       	or	r25, r18
     35a:	90 93 28 02 	sts	0x0228, r25	; 0x800228 <_ZL10count_ch_2+0x1>
     35e:	80 93 27 02 	sts	0x0227, r24	; 0x800227 <_ZL10count_ch_2>
     362:	3f c0       	rjmp	.+126    	; 0x3e2 <__vector_10+0x17c>
	}
	else if (!(PINJ & 0b00010000) && last_ch_2 == true) //Falling edge
     364:	80 91 39 02 	lds	r24, 0x0239	; 0x800239 <_ZL9last_ch_2>
     368:	81 11       	cpse	r24, r1
     36a:	1d c1       	rjmp	.+570    	; 0x5a6 <__FUSE_REGION_LENGTH__+0x1a6>
     36c:	3a c0       	rjmp	.+116    	; 0x3e2 <__vector_10+0x17c>
	{	last_ch_2 = false;
		//subtract current counter to old one in count_ch_2 and store variable in ch_2_pw
		//only if there is no overflow at rising and falling edge or if there is an overflow for both
		if((!timer_3_ovf && !ch_2_ovf_rising) || (timer_3_ovf && ch_2_ovf_rising) ) ch_2_pw = (TCNT3L | TCNT3H << 8) - count_ch_2;
     36e:	80 91 20 02 	lds	r24, 0x0220	; 0x800220 <_ZL15ch_2_ovf_rising>
     372:	81 11       	cpse	r24, r1
     374:	16 c0       	rjmp	.+44     	; 0x3a2 <__vector_10+0x13c>
     376:	04 c0       	rjmp	.+8      	; 0x380 <__vector_10+0x11a>
     378:	80 91 20 02 	lds	r24, 0x0220	; 0x800220 <_ZL15ch_2_ovf_rising>
     37c:	88 23       	and	r24, r24
     37e:	89 f0       	breq	.+34     	; 0x3a2 <__vector_10+0x13c>
     380:	80 91 94 00 	lds	r24, 0x0094	; 0x800094 <__TEXT_REGION_LENGTH__+0x700094>
     384:	20 91 95 00 	lds	r18, 0x0095	; 0x800095 <__TEXT_REGION_LENGTH__+0x700095>
     388:	90 e0       	ldi	r25, 0x00	; 0
     38a:	92 2b       	or	r25, r18
     38c:	20 91 27 02 	lds	r18, 0x0227	; 0x800227 <_ZL10count_ch_2>
     390:	30 91 28 02 	lds	r19, 0x0228	; 0x800228 <_ZL10count_ch_2+0x1>
     394:	82 1b       	sub	r24, r18
     396:	93 0b       	sbc	r25, r19
     398:	90 93 30 02 	sts	0x0230, r25	; 0x800230 <ch_2_pw+0x1>
     39c:	80 93 2f 02 	sts	0x022F, r24	; 0x80022f <ch_2_pw>
     3a0:	10 c0       	rjmp	.+32     	; 0x3c2 <__vector_10+0x15c>
		//else there is an overflow calculate the real pulse time by adding 2^16
		else ch_1_pw = 65535 - count_ch_2 + (TCNT3L | TCNT3H << 8) + 1;
     3a2:	80 91 94 00 	lds	r24, 0x0094	; 0x800094 <__TEXT_REGION_LENGTH__+0x700094>
     3a6:	20 91 95 00 	lds	r18, 0x0095	; 0x800095 <__TEXT_REGION_LENGTH__+0x700095>
     3aa:	90 e0       	ldi	r25, 0x00	; 0
     3ac:	92 2b       	or	r25, r18
     3ae:	20 91 27 02 	lds	r18, 0x0227	; 0x800227 <_ZL10count_ch_2>
     3b2:	30 91 28 02 	lds	r19, 0x0228	; 0x800228 <_ZL10count_ch_2+0x1>
     3b6:	82 1b       	sub	r24, r18
     3b8:	93 0b       	sbc	r25, r19
     3ba:	90 93 32 02 	sts	0x0232, r25	; 0x800232 <ch_1_pw+0x1>
     3be:	80 93 31 02 	sts	0x0231, r24	; 0x800231 <ch_1_pw>
		ch_2_counting = false;
     3c2:	10 92 35 02 	sts	0x0235, r1	; 0x800235 <_ZL13ch_2_counting>
		//remove the overflow flag only when no channel is counting to avoid problems
		//when overflow happens when 2 channels are counting
		if (!ch_1_counting && !ch_2_counting && !ch_3_counting && !ch_4_counting) timer_3_ovf=false;
     3c6:	80 91 36 02 	lds	r24, 0x0236	; 0x800236 <_ZL13ch_1_counting>
     3ca:	81 11       	cpse	r24, r1
     3cc:	0a c0       	rjmp	.+20     	; 0x3e2 <__vector_10+0x17c>
     3ce:	80 91 34 02 	lds	r24, 0x0234	; 0x800234 <_ZL13ch_3_counting>
     3d2:	81 11       	cpse	r24, r1
     3d4:	06 c0       	rjmp	.+12     	; 0x3e2 <__vector_10+0x17c>
     3d6:	80 91 33 02 	lds	r24, 0x0233	; 0x800233 <_ZL13ch_4_counting>
     3da:	81 11       	cpse	r24, r1
     3dc:	02 c0       	rjmp	.+4      	; 0x3e2 <__vector_10+0x17c>
     3de:	10 92 22 02 	sts	0x0222, r1	; 0x800222 <_ZL11timer_3_ovf>
	}
	
	
	//channel_3
	if (PINJ & 0b00100000 && last_ch_3 == false) //Rising edge
     3e2:	80 91 03 01 	lds	r24, 0x0103	; 0x800103 <__TEXT_REGION_LENGTH__+0x700103>
     3e6:	85 ff       	sbrs	r24, 5
     3e8:	ef c0       	rjmp	.+478    	; 0x5c8 <__FUSE_REGION_LENGTH__+0x1c8>
     3ea:	80 91 38 02 	lds	r24, 0x0238	; 0x800238 <_ZL9last_ch_3>
     3ee:	81 11       	cpse	r24, r1
     3f0:	17 c1       	rjmp	.+558    	; 0x620 <__FUSE_REGION_LENGTH__+0x220>
     3f2:	e0 c0       	rjmp	.+448    	; 0x5b4 <__FUSE_REGION_LENGTH__+0x1b4>
	{	last_ch_3 = true;
		ch_3_counting = true;
		//verify if there is an overflow before starting to count
		if(timer_3_ovf) ch_3_ovf_rising = true;
     3f4:	81 e0       	ldi	r24, 0x01	; 1
     3f6:	80 93 1f 02 	sts	0x021F, r24	; 0x80021f <_ZL15ch_3_ovf_rising>
     3fa:	02 c0       	rjmp	.+4      	; 0x400 <__FUSE_REGION_LENGTH__>
		else ch_3_ovf_rising = false;
     3fc:	10 92 1f 02 	sts	0x021F, r1	; 0x80021f <_ZL15ch_3_ovf_rising>
		//record the counter value for the rising edge
		count_ch_3 = TCNT3L | TCNT3H << 8;
     400:	80 91 94 00 	lds	r24, 0x0094	; 0x800094 <__TEXT_REGION_LENGTH__+0x700094>
     404:	20 91 95 00 	lds	r18, 0x0095	; 0x800095 <__TEXT_REGION_LENGTH__+0x700095>
     408:	90 e0       	ldi	r25, 0x00	; 0
     40a:	92 2b       	or	r25, r18
     40c:	90 93 26 02 	sts	0x0226, r25	; 0x800226 <_ZL10count_ch_3+0x1>
     410:	80 93 25 02 	sts	0x0225, r24	; 0x800225 <_ZL10count_ch_3>
     414:	44 c0       	rjmp	.+136    	; 0x49e <__FUSE_REGION_LENGTH__+0x9e>
	}
	else if (!(PINJ & 0b00100000) && last_ch_3 == true) //Falling edge
     416:	80 91 38 02 	lds	r24, 0x0238	; 0x800238 <_ZL9last_ch_3>
     41a:	81 11       	cpse	r24, r1
     41c:	da c0       	rjmp	.+436    	; 0x5d2 <__FUSE_REGION_LENGTH__+0x1d2>
     41e:	3f c0       	rjmp	.+126    	; 0x49e <__FUSE_REGION_LENGTH__+0x9e>
	{	last_ch_3 = false;
		//subtract current counter to old one in count_ch_3 and store variable in ch_3_pw
		//only if there is no overflow at rising and falling edge or if there is an overflow for both
		if((!timer_3_ovf && !ch_3_ovf_rising) || (timer_3_ovf && ch_3_ovf_rising) ) ch_3_pw = (TCNT3L | TCNT3H << 8) - count_ch_3;
     420:	80 91 1f 02 	lds	r24, 0x021F	; 0x80021f <_ZL15ch_3_ovf_rising>
     424:	81 11       	cpse	r24, r1
     426:	16 c0       	rjmp	.+44     	; 0x454 <__FUSE_REGION_LENGTH__+0x54>
     428:	04 c0       	rjmp	.+8      	; 0x432 <__FUSE_REGION_LENGTH__+0x32>
     42a:	80 91 1f 02 	lds	r24, 0x021F	; 0x80021f <_ZL15ch_3_ovf_rising>
     42e:	88 23       	and	r24, r24
     430:	89 f0       	breq	.+34     	; 0x454 <__FUSE_REGION_LENGTH__+0x54>
     432:	80 91 94 00 	lds	r24, 0x0094	; 0x800094 <__TEXT_REGION_LENGTH__+0x700094>
     436:	20 91 95 00 	lds	r18, 0x0095	; 0x800095 <__TEXT_REGION_LENGTH__+0x700095>
     43a:	90 e0       	ldi	r25, 0x00	; 0
     43c:	92 2b       	or	r25, r18
     43e:	20 91 25 02 	lds	r18, 0x0225	; 0x800225 <_ZL10count_ch_3>
     442:	30 91 26 02 	lds	r19, 0x0226	; 0x800226 <_ZL10count_ch_3+0x1>
     446:	82 1b       	sub	r24, r18
     448:	93 0b       	sbc	r25, r19
     44a:	90 93 2e 02 	sts	0x022E, r25	; 0x80022e <ch_3_pw+0x1>
     44e:	80 93 2d 02 	sts	0x022D, r24	; 0x80022d <ch_3_pw>
     452:	15 c0       	rjmp	.+42     	; 0x47e <__FUSE_REGION_LENGTH__+0x7e>
		//else there is an overflow calculate the real pulse time by adding 2^16
		else ch_3_pw = 65535 - count_ch_3 + (TCNT3L | TCNT3H << 8) + 3;
     454:	90 91 94 00 	lds	r25, 0x0094	; 0x800094 <__TEXT_REGION_LENGTH__+0x700094>
     458:	40 91 95 00 	lds	r20, 0x0095	; 0x800095 <__TEXT_REGION_LENGTH__+0x700095>
     45c:	60 91 25 02 	lds	r22, 0x0225	; 0x800225 <_ZL10count_ch_3>
     460:	70 91 26 02 	lds	r23, 0x0226	; 0x800226 <_ZL10count_ch_3+0x1>
     464:	22 e0       	ldi	r18, 0x02	; 2
     466:	30 e0       	ldi	r19, 0x00	; 0
     468:	26 1b       	sub	r18, r22
     46a:	37 0b       	sbc	r19, r23
     46c:	89 2f       	mov	r24, r25
     46e:	90 e0       	ldi	r25, 0x00	; 0
     470:	94 2b       	or	r25, r20
     472:	82 0f       	add	r24, r18
     474:	93 1f       	adc	r25, r19
     476:	90 93 2e 02 	sts	0x022E, r25	; 0x80022e <ch_3_pw+0x1>
     47a:	80 93 2d 02 	sts	0x022D, r24	; 0x80022d <ch_3_pw>
		ch_3_counting = false;
     47e:	10 92 34 02 	sts	0x0234, r1	; 0x800234 <_ZL13ch_3_counting>
		//remove the overflow flag only when no channel is counting to avoid problems
		//when overflow happens when 2 channels are counting
		if (!ch_1_counting && !ch_2_counting && !ch_3_counting && !ch_4_counting) timer_3_ovf=false;
     482:	80 91 36 02 	lds	r24, 0x0236	; 0x800236 <_ZL13ch_1_counting>
     486:	81 11       	cpse	r24, r1
     488:	0a c0       	rjmp	.+20     	; 0x49e <__FUSE_REGION_LENGTH__+0x9e>
     48a:	80 91 35 02 	lds	r24, 0x0235	; 0x800235 <_ZL13ch_2_counting>
     48e:	81 11       	cpse	r24, r1
     490:	06 c0       	rjmp	.+12     	; 0x49e <__FUSE_REGION_LENGTH__+0x9e>
     492:	80 91 33 02 	lds	r24, 0x0233	; 0x800233 <_ZL13ch_4_counting>
     496:	81 11       	cpse	r24, r1
     498:	02 c0       	rjmp	.+4      	; 0x49e <__FUSE_REGION_LENGTH__+0x9e>
     49a:	10 92 22 02 	sts	0x0222, r1	; 0x800222 <_ZL11timer_3_ovf>
	}
	
	
	//channel_4
	if (PINJ & 0b01000000 && last_ch_4 == false) //Rising edge
     49e:	80 91 03 01 	lds	r24, 0x0103	; 0x800103 <__TEXT_REGION_LENGTH__+0x700103>
     4a2:	86 ff       	sbrs	r24, 6
     4a4:	a7 c0       	rjmp	.+334    	; 0x5f4 <__FUSE_REGION_LENGTH__+0x1f4>
     4a6:	80 91 37 02 	lds	r24, 0x0237	; 0x800237 <_ZL9last_ch_4>
     4aa:	81 11       	cpse	r24, r1
     4ac:	be c0       	rjmp	.+380    	; 0x62a <__FUSE_REGION_LENGTH__+0x22a>
     4ae:	98 c0       	rjmp	.+304    	; 0x5e0 <__FUSE_REGION_LENGTH__+0x1e0>
	{	last_ch_4 = true;
		ch_4_counting = true;
		//verify if there is an overflow before starting to count
		if(timer_3_ovf) ch_4_ovf_rising = true;
     4b0:	81 e0       	ldi	r24, 0x01	; 1
     4b2:	80 93 1e 02 	sts	0x021E, r24	; 0x80021e <__data_end>
     4b6:	02 c0       	rjmp	.+4      	; 0x4bc <__FUSE_REGION_LENGTH__+0xbc>
		else ch_4_ovf_rising = false;
     4b8:	10 92 1e 02 	sts	0x021E, r1	; 0x80021e <__data_end>
		//record the counter value for the rising edge
		count_ch_4 = TCNT3L | TCNT3H << 8;
     4bc:	80 91 94 00 	lds	r24, 0x0094	; 0x800094 <__TEXT_REGION_LENGTH__+0x700094>
     4c0:	20 91 95 00 	lds	r18, 0x0095	; 0x800095 <__TEXT_REGION_LENGTH__+0x700095>
     4c4:	90 e0       	ldi	r25, 0x00	; 0
     4c6:	92 2b       	or	r25, r18
     4c8:	90 93 24 02 	sts	0x0224, r25	; 0x800224 <_ZL10count_ch_4+0x1>
     4cc:	80 93 23 02 	sts	0x0223, r24	; 0x800223 <_ZL10count_ch_4>
     4d0:	b0 c0       	rjmp	.+352    	; 0x632 <__FUSE_REGION_LENGTH__+0x232>
	}
	else if (!(PINJ & 0b01000000) && last_ch_4 == true) //Falling edge
     4d2:	80 91 37 02 	lds	r24, 0x0237	; 0x800237 <_ZL9last_ch_4>
     4d6:	81 11       	cpse	r24, r1
     4d8:	92 c0       	rjmp	.+292    	; 0x5fe <__FUSE_REGION_LENGTH__+0x1fe>
     4da:	ab c0       	rjmp	.+342    	; 0x632 <__FUSE_REGION_LENGTH__+0x232>
	{	last_ch_4 = false;
		//subtract current counter to old one in count_ch_4 and store variable in ch_4_pw
		//only if there is no overflow at rising and falling edge or if there is an overflow for both
		if((!timer_3_ovf && !ch_4_ovf_rising) || (timer_3_ovf && ch_4_ovf_rising) ) ch_4_pw = (TCNT3L | TCNT3H << 8) - count_ch_4;
     4dc:	80 91 1e 02 	lds	r24, 0x021E	; 0x80021e <__data_end>
     4e0:	81 11       	cpse	r24, r1
     4e2:	16 c0       	rjmp	.+44     	; 0x510 <__FUSE_REGION_LENGTH__+0x110>
     4e4:	04 c0       	rjmp	.+8      	; 0x4ee <__FUSE_REGION_LENGTH__+0xee>
     4e6:	80 91 1e 02 	lds	r24, 0x021E	; 0x80021e <__data_end>
     4ea:	88 23       	and	r24, r24
     4ec:	89 f0       	breq	.+34     	; 0x510 <__FUSE_REGION_LENGTH__+0x110>
     4ee:	80 91 94 00 	lds	r24, 0x0094	; 0x800094 <__TEXT_REGION_LENGTH__+0x700094>
     4f2:	20 91 95 00 	lds	r18, 0x0095	; 0x800095 <__TEXT_REGION_LENGTH__+0x700095>
     4f6:	90 e0       	ldi	r25, 0x00	; 0
     4f8:	92 2b       	or	r25, r18
     4fa:	20 91 23 02 	lds	r18, 0x0223	; 0x800223 <_ZL10count_ch_4>
     4fe:	30 91 24 02 	lds	r19, 0x0224	; 0x800224 <_ZL10count_ch_4+0x1>
     502:	82 1b       	sub	r24, r18
     504:	93 0b       	sbc	r25, r19
     506:	90 93 2c 02 	sts	0x022C, r25	; 0x80022c <ch_4_pw+0x1>
     50a:	80 93 2b 02 	sts	0x022B, r24	; 0x80022b <ch_4_pw>
     50e:	15 c0       	rjmp	.+42     	; 0x53a <__FUSE_REGION_LENGTH__+0x13a>
		//else there is an overflow calculate the real pulse time by adding 2^16
		else ch_4_pw = 65535 - count_ch_4 + (TCNT3L | TCNT3H << 8) + 4;
     510:	90 91 94 00 	lds	r25, 0x0094	; 0x800094 <__TEXT_REGION_LENGTH__+0x700094>
     514:	40 91 95 00 	lds	r20, 0x0095	; 0x800095 <__TEXT_REGION_LENGTH__+0x700095>
     518:	60 91 23 02 	lds	r22, 0x0223	; 0x800223 <_ZL10count_ch_4>
     51c:	70 91 24 02 	lds	r23, 0x0224	; 0x800224 <_ZL10count_ch_4+0x1>
     520:	23 e0       	ldi	r18, 0x03	; 3
     522:	30 e0       	ldi	r19, 0x00	; 0
     524:	26 1b       	sub	r18, r22
     526:	37 0b       	sbc	r19, r23
     528:	89 2f       	mov	r24, r25
     52a:	90 e0       	ldi	r25, 0x00	; 0
     52c:	94 2b       	or	r25, r20
     52e:	82 0f       	add	r24, r18
     530:	93 1f       	adc	r25, r19
     532:	90 93 2c 02 	sts	0x022C, r25	; 0x80022c <ch_4_pw+0x1>
     536:	80 93 2b 02 	sts	0x022B, r24	; 0x80022b <ch_4_pw>
		ch_4_counting = false;
     53a:	10 92 33 02 	sts	0x0233, r1	; 0x800233 <_ZL13ch_4_counting>
		//remove the overflow flag only when no channel is counting to avoid problems
		//when overflow happens when 2 channels are counting
		if (!ch_1_counting && !ch_2_counting && !ch_3_counting && !ch_4_counting) timer_3_ovf=false;
     53e:	80 91 36 02 	lds	r24, 0x0236	; 0x800236 <_ZL13ch_1_counting>
     542:	81 11       	cpse	r24, r1
     544:	76 c0       	rjmp	.+236    	; 0x632 <__FUSE_REGION_LENGTH__+0x232>
     546:	80 91 35 02 	lds	r24, 0x0235	; 0x800235 <_ZL13ch_2_counting>
     54a:	81 11       	cpse	r24, r1
     54c:	72 c0       	rjmp	.+228    	; 0x632 <__FUSE_REGION_LENGTH__+0x232>
     54e:	80 91 34 02 	lds	r24, 0x0234	; 0x800234 <_ZL13ch_3_counting>
     552:	81 11       	cpse	r24, r1
     554:	6e c0       	rjmp	.+220    	; 0x632 <__FUSE_REGION_LENGTH__+0x232>
     556:	10 92 22 02 	sts	0x0222, r1	; 0x800222 <_ZL11timer_3_ovf>
     55a:	6b c0       	rjmp	.+214    	; 0x632 <__FUSE_REGION_LENGTH__+0x232>
		if(timer_3_ovf) ch_1_ovf_rising = true;
		else ch_1_ovf_rising = false;
		//record the counter value for the rising edge
		count_ch_1 = TCNT3L | TCNT3H << 8;		
	}
	else if (!(PINJ & 0b00001000) && last_ch_1 == true) //Falling edge
     55c:	80 91 03 01 	lds	r24, 0x0103	; 0x800103 <__TEXT_REGION_LENGTH__+0x700103>
     560:	83 ff       	sbrs	r24, 3
     562:	a7 ce       	rjmp	.-690    	; 0x2b2 <__vector_10+0x4c>
     564:	e5 ce       	rjmp	.-566    	; 0x330 <__vector_10+0xca>

ISR(PCINT1_vect) {
	//LCD_WriteString("PCINT1");
	//channel_1
	if (PINJ & 0b00001000 && last_ch_1 == false) //Rising edge
	{	last_ch_1 = true;
     566:	81 e0       	ldi	r24, 0x01	; 1
     568:	80 93 3a 02 	sts	0x023A, r24	; 0x80023a <_ZL9last_ch_1>
		ch_1_counting = true;
     56c:	80 93 36 02 	sts	0x0236, r24	; 0x800236 <_ZL13ch_1_counting>
		//verify if there is an overflow before starting to count
		if(timer_3_ovf) ch_1_ovf_rising = true;
     570:	80 91 22 02 	lds	r24, 0x0222	; 0x800222 <_ZL11timer_3_ovf>
     574:	81 11       	cpse	r24, r1
     576:	8c ce       	rjmp	.-744    	; 0x290 <__vector_10+0x2a>
     578:	8f ce       	rjmp	.-738    	; 0x298 <__vector_10+0x32>
		else ch_1_ovf_rising = false;
		//record the counter value for the rising edge
		count_ch_1 = TCNT3L | TCNT3H << 8;		
	}
	else if (!(PINJ & 0b00001000) && last_ch_1 == true) //Falling edge
	{	last_ch_1 = false;
     57a:	10 92 3a 02 	sts	0x023A, r1	; 0x80023a <_ZL9last_ch_1>
		//subtract current counter to old one in count_ch_1 and store variable in ch_1_pw
		//only if there is no overflow at rising and falling edge or if there is an overflow for both
		if((!timer_3_ovf && !ch_1_ovf_rising) || (timer_3_ovf && ch_1_ovf_rising)) 
     57e:	80 91 22 02 	lds	r24, 0x0222	; 0x800222 <_ZL11timer_3_ovf>
     582:	81 11       	cpse	r24, r1
     584:	a0 ce       	rjmp	.-704    	; 0x2c6 <__vector_10+0x60>
     586:	9a ce       	rjmp	.-716    	; 0x2bc <__vector_10+0x56>
	}
	
	
	//channel_2
	if (PINJ & 0b00010000 && last_ch_2 == false) //Rising edge
	{	last_ch_2 = true;
     588:	81 e0       	ldi	r24, 0x01	; 1
     58a:	80 93 39 02 	sts	0x0239, r24	; 0x800239 <_ZL9last_ch_2>
		ch_2_counting = true;
     58e:	80 93 35 02 	sts	0x0235, r24	; 0x800235 <_ZL13ch_2_counting>
		//verify if there is an overflow before starting to count
		if(timer_3_ovf) ch_2_ovf_rising = true;
     592:	80 91 22 02 	lds	r24, 0x0222	; 0x800222 <_ZL11timer_3_ovf>
     596:	81 11       	cpse	r24, r1
     598:	d4 ce       	rjmp	.-600    	; 0x342 <__vector_10+0xdc>
     59a:	d7 ce       	rjmp	.-594    	; 0x34a <__vector_10+0xe4>
		else ch_2_ovf_rising = false;
		//record the counter value for the rising edge
		count_ch_2 = TCNT3L | TCNT3H << 8;
	}
	else if (!(PINJ & 0b00010000) && last_ch_2 == true) //Falling edge
     59c:	80 91 03 01 	lds	r24, 0x0103	; 0x800103 <__TEXT_REGION_LENGTH__+0x700103>
     5a0:	84 ff       	sbrs	r24, 4
     5a2:	e0 ce       	rjmp	.-576    	; 0x364 <__vector_10+0xfe>
     5a4:	1e cf       	rjmp	.-452    	; 0x3e2 <__vector_10+0x17c>
	{	last_ch_2 = false;
     5a6:	10 92 39 02 	sts	0x0239, r1	; 0x800239 <_ZL9last_ch_2>
		//subtract current counter to old one in count_ch_2 and store variable in ch_2_pw
		//only if there is no overflow at rising and falling edge or if there is an overflow for both
		if((!timer_3_ovf && !ch_2_ovf_rising) || (timer_3_ovf && ch_2_ovf_rising) ) ch_2_pw = (TCNT3L | TCNT3H << 8) - count_ch_2;
     5aa:	80 91 22 02 	lds	r24, 0x0222	; 0x800222 <_ZL11timer_3_ovf>
     5ae:	81 11       	cpse	r24, r1
     5b0:	e3 ce       	rjmp	.-570    	; 0x378 <__vector_10+0x112>
     5b2:	dd ce       	rjmp	.-582    	; 0x36e <__vector_10+0x108>
	}
	
	
	//channel_3
	if (PINJ & 0b00100000 && last_ch_3 == false) //Rising edge
	{	last_ch_3 = true;
     5b4:	81 e0       	ldi	r24, 0x01	; 1
     5b6:	80 93 38 02 	sts	0x0238, r24	; 0x800238 <_ZL9last_ch_3>
		ch_3_counting = true;
     5ba:	80 93 34 02 	sts	0x0234, r24	; 0x800234 <_ZL13ch_3_counting>
		//verify if there is an overflow before starting to count
		if(timer_3_ovf) ch_3_ovf_rising = true;
     5be:	80 91 22 02 	lds	r24, 0x0222	; 0x800222 <_ZL11timer_3_ovf>
     5c2:	81 11       	cpse	r24, r1
     5c4:	17 cf       	rjmp	.-466    	; 0x3f4 <__vector_10+0x18e>
     5c6:	1a cf       	rjmp	.-460    	; 0x3fc <__vector_10+0x196>
		else ch_3_ovf_rising = false;
		//record the counter value for the rising edge
		count_ch_3 = TCNT3L | TCNT3H << 8;
	}
	else if (!(PINJ & 0b00100000) && last_ch_3 == true) //Falling edge
     5c8:	80 91 03 01 	lds	r24, 0x0103	; 0x800103 <__TEXT_REGION_LENGTH__+0x700103>
     5cc:	85 ff       	sbrs	r24, 5
     5ce:	23 cf       	rjmp	.-442    	; 0x416 <__FUSE_REGION_LENGTH__+0x16>
     5d0:	66 cf       	rjmp	.-308    	; 0x49e <__FUSE_REGION_LENGTH__+0x9e>
	{	last_ch_3 = false;
     5d2:	10 92 38 02 	sts	0x0238, r1	; 0x800238 <_ZL9last_ch_3>
		//subtract current counter to old one in count_ch_3 and store variable in ch_3_pw
		//only if there is no overflow at rising and falling edge or if there is an overflow for both
		if((!timer_3_ovf && !ch_3_ovf_rising) || (timer_3_ovf && ch_3_ovf_rising) ) ch_3_pw = (TCNT3L | TCNT3H << 8) - count_ch_3;
     5d6:	80 91 22 02 	lds	r24, 0x0222	; 0x800222 <_ZL11timer_3_ovf>
     5da:	81 11       	cpse	r24, r1
     5dc:	26 cf       	rjmp	.-436    	; 0x42a <__FUSE_REGION_LENGTH__+0x2a>
     5de:	20 cf       	rjmp	.-448    	; 0x420 <__FUSE_REGION_LENGTH__+0x20>
	}
	
	
	//channel_4
	if (PINJ & 0b01000000 && last_ch_4 == false) //Rising edge
	{	last_ch_4 = true;
     5e0:	81 e0       	ldi	r24, 0x01	; 1
     5e2:	80 93 37 02 	sts	0x0237, r24	; 0x800237 <_ZL9last_ch_4>
		ch_4_counting = true;
     5e6:	80 93 33 02 	sts	0x0233, r24	; 0x800233 <_ZL13ch_4_counting>
		//verify if there is an overflow before starting to count
		if(timer_3_ovf) ch_4_ovf_rising = true;
     5ea:	80 91 22 02 	lds	r24, 0x0222	; 0x800222 <_ZL11timer_3_ovf>
     5ee:	81 11       	cpse	r24, r1
     5f0:	5f cf       	rjmp	.-322    	; 0x4b0 <__FUSE_REGION_LENGTH__+0xb0>
     5f2:	62 cf       	rjmp	.-316    	; 0x4b8 <__FUSE_REGION_LENGTH__+0xb8>
		else ch_4_ovf_rising = false;
		//record the counter value for the rising edge
		count_ch_4 = TCNT3L | TCNT3H << 8;
	}
	else if (!(PINJ & 0b01000000) && last_ch_4 == true) //Falling edge
     5f4:	80 91 03 01 	lds	r24, 0x0103	; 0x800103 <__TEXT_REGION_LENGTH__+0x700103>
     5f8:	86 ff       	sbrs	r24, 6
     5fa:	6b cf       	rjmp	.-298    	; 0x4d2 <__FUSE_REGION_LENGTH__+0xd2>
     5fc:	1a c0       	rjmp	.+52     	; 0x632 <__FUSE_REGION_LENGTH__+0x232>
	{	last_ch_4 = false;
     5fe:	10 92 37 02 	sts	0x0237, r1	; 0x800237 <_ZL9last_ch_4>
		//subtract current counter to old one in count_ch_4 and store variable in ch_4_pw
		//only if there is no overflow at rising and falling edge or if there is an overflow for both
		if((!timer_3_ovf && !ch_4_ovf_rising) || (timer_3_ovf && ch_4_ovf_rising) ) ch_4_pw = (TCNT3L | TCNT3H << 8) - count_ch_4;
     602:	80 91 22 02 	lds	r24, 0x0222	; 0x800222 <_ZL11timer_3_ovf>
     606:	81 11       	cpse	r24, r1
     608:	6e cf       	rjmp	.-292    	; 0x4e6 <__FUSE_REGION_LENGTH__+0xe6>
     60a:	68 cf       	rjmp	.-304    	; 0x4dc <__FUSE_REGION_LENGTH__+0xdc>
		if(timer_3_ovf) ch_1_ovf_rising = true;
		else ch_1_ovf_rising = false;
		//record the counter value for the rising edge
		count_ch_1 = TCNT3L | TCNT3H << 8;		
	}
	else if (!(PINJ & 0b00001000) && last_ch_1 == true) //Falling edge
     60c:	80 91 03 01 	lds	r24, 0x0103	; 0x800103 <__TEXT_REGION_LENGTH__+0x700103>
     610:	83 ff       	sbrs	r24, 3
     612:	b3 cf       	rjmp	.-154    	; 0x57a <__FUSE_REGION_LENGTH__+0x17a>
     614:	8d ce       	rjmp	.-742    	; 0x330 <__vector_10+0xca>
		if(timer_3_ovf) ch_2_ovf_rising = true;
		else ch_2_ovf_rising = false;
		//record the counter value for the rising edge
		count_ch_2 = TCNT3L | TCNT3H << 8;
	}
	else if (!(PINJ & 0b00010000) && last_ch_2 == true) //Falling edge
     616:	80 91 03 01 	lds	r24, 0x0103	; 0x800103 <__TEXT_REGION_LENGTH__+0x700103>
     61a:	84 ff       	sbrs	r24, 4
     61c:	c4 cf       	rjmp	.-120    	; 0x5a6 <__FUSE_REGION_LENGTH__+0x1a6>
     61e:	e1 ce       	rjmp	.-574    	; 0x3e2 <__vector_10+0x17c>
		if(timer_3_ovf) ch_3_ovf_rising = true;
		else ch_3_ovf_rising = false;
		//record the counter value for the rising edge
		count_ch_3 = TCNT3L | TCNT3H << 8;
	}
	else if (!(PINJ & 0b00100000) && last_ch_3 == true) //Falling edge
     620:	80 91 03 01 	lds	r24, 0x0103	; 0x800103 <__TEXT_REGION_LENGTH__+0x700103>
     624:	85 ff       	sbrs	r24, 5
     626:	d5 cf       	rjmp	.-86     	; 0x5d2 <__FUSE_REGION_LENGTH__+0x1d2>
     628:	3a cf       	rjmp	.-396    	; 0x49e <__FUSE_REGION_LENGTH__+0x9e>
		if(timer_3_ovf) ch_4_ovf_rising = true;
		else ch_4_ovf_rising = false;
		//record the counter value for the rising edge
		count_ch_4 = TCNT3L | TCNT3H << 8;
	}
	else if (!(PINJ & 0b01000000) && last_ch_4 == true) //Falling edge
     62a:	80 91 03 01 	lds	r24, 0x0103	; 0x800103 <__TEXT_REGION_LENGTH__+0x700103>
     62e:	86 ff       	sbrs	r24, 6
     630:	e6 cf       	rjmp	.-52     	; 0x5fe <__FUSE_REGION_LENGTH__+0x1fe>
		if (!ch_1_counting && !ch_2_counting && !ch_3_counting && !ch_4_counting) timer_3_ovf=false;
	}
	
	//do the same for every channel when cleaned up
	
}
     632:	9f 91       	pop	r25
     634:	8f 91       	pop	r24
     636:	7f 91       	pop	r23
     638:	6f 91       	pop	r22
     63a:	4f 91       	pop	r20
     63c:	3f 91       	pop	r19
     63e:	2f 91       	pop	r18
     640:	0f 90       	pop	r0
     642:	0f be       	out	0x3f, r0	; 63
     644:	0f 90       	pop	r0
     646:	1f 90       	pop	r1
     648:	18 95       	reti

0000064a <__vector_35>:

ISR(TIMER3_OVF_vect) {
     64a:	1f 92       	push	r1
     64c:	0f 92       	push	r0
     64e:	0f b6       	in	r0, 0x3f	; 63
     650:	0f 92       	push	r0
     652:	11 24       	eor	r1, r1
     654:	8f 93       	push	r24
	timer_3_ovf=true;
     656:	81 e0       	ldi	r24, 0x01	; 1
     658:	80 93 22 02 	sts	0x0222, r24	; 0x800222 <_ZL11timer_3_ovf>
	TIFR3 &= ~(1 << TOV3);
     65c:	c0 98       	cbi	0x18, 0	; 24
     65e:	8f 91       	pop	r24
     660:	0f 90       	pop	r0
     662:	0f be       	out	0x3f, r0	; 63
     664:	0f 90       	pop	r0
     666:	1f 90       	pop	r1
     668:	18 95       	reti

0000066a <_Z6enablev>:
	* @brief Toggle the enable pin to "send" command to display
	* @param None
	* @retval None
	*/
void enable(void){
	PORTL |= (1 << E);
     66a:	eb e0       	ldi	r30, 0x0B	; 11
     66c:	f1 e0       	ldi	r31, 0x01	; 1
     66e:	80 81       	ld	r24, Z
     670:	80 68       	ori	r24, 0x80	; 128
     672:	80 83       	st	Z, r24
	TCNT1L = 0, TCNT1H = 0;
     674:	10 92 84 00 	sts	0x0084, r1	; 0x800084 <__TEXT_REGION_LENGTH__+0x700084>
     678:	10 92 85 00 	sts	0x0085, r1	; 0x800085 <__TEXT_REGION_LENGTH__+0x700085>
	while ((TCNT1L | TCNT1H << 8) < ENABLE_TIME){/* delay for synchronization */}	
     67c:	a4 e8       	ldi	r26, 0x84	; 132
     67e:	b0 e0       	ldi	r27, 0x00	; 0
     680:	e5 e8       	ldi	r30, 0x85	; 133
     682:	f0 e0       	ldi	r31, 0x00	; 0
     684:	8c 91       	ld	r24, X
     686:	20 81       	ld	r18, Z
     688:	90 e0       	ldi	r25, 0x00	; 0
     68a:	92 2b       	or	r25, r18
     68c:	80 39       	cpi	r24, 0x90	; 144
     68e:	91 40       	sbci	r25, 0x01	; 1
     690:	cc f3       	brlt	.-14     	; 0x684 <_Z6enablev+0x1a>
	TCNT1L = 0, TCNT1H = 0;
     692:	10 92 84 00 	sts	0x0084, r1	; 0x800084 <__TEXT_REGION_LENGTH__+0x700084>
     696:	10 92 85 00 	sts	0x0085, r1	; 0x800085 <__TEXT_REGION_LENGTH__+0x700085>
	PORTL &= ~(1 << E);
     69a:	eb e0       	ldi	r30, 0x0B	; 11
     69c:	f1 e0       	ldi	r31, 0x01	; 1
     69e:	80 81       	ld	r24, Z
     6a0:	8f 77       	andi	r24, 0x7F	; 127
     6a2:	80 83       	st	Z, r24
     6a4:	08 95       	ret

000006a6 <_Z13LCD_WriteCharc>:
/**
	* @brief set the data pin to a particular character
  * @param c: char to be written on the LCD
	* @retval None
	*/
void LCD_WriteChar(char c){
     6a6:	0f 93       	push	r16
     6a8:	1f 93       	push	r17
     6aa:	cf 93       	push	r28
     6ac:	df 93       	push	r29
     6ae:	e0 e0       	ldi	r30, 0x00	; 0
     6b0:	f2 e0       	ldi	r31, 0x02	; 2
	int i;
	for (i = 0; i < 8; i++) {
     6b2:	40 e0       	ldi	r20, 0x00	; 0
     6b4:	50 e0       	ldi	r21, 0x00	; 0
		/* extracts a bit of the char and checks if it's 1 to set the line to high */
		if ((c & (1 << i)) >> i == 1) {
     6b6:	c1 e0       	ldi	r28, 0x01	; 1
     6b8:	d0 e0       	ldi	r29, 0x00	; 0
     6ba:	08 2f       	mov	r16, r24
     6bc:	10 e0       	ldi	r17, 0x00	; 0
			PORTK |= (1 << dataPin[i]);
		} else {
			PORTK &= ~(1 << dataPin[i]);
     6be:	a8 e0       	ldi	r26, 0x08	; 8
     6c0:	b1 e0       	ldi	r27, 0x01	; 1
	*/
void LCD_WriteChar(char c){
	int i;
	for (i = 0; i < 8; i++) {
		/* extracts a bit of the char and checks if it's 1 to set the line to high */
		if ((c & (1 << i)) >> i == 1) {
     6c2:	9e 01       	movw	r18, r28
     6c4:	04 2e       	mov	r0, r20
     6c6:	02 c0       	rjmp	.+4      	; 0x6cc <_Z13LCD_WriteCharc+0x26>
     6c8:	22 0f       	add	r18, r18
     6ca:	33 1f       	adc	r19, r19
     6cc:	0a 94       	dec	r0
     6ce:	e2 f7       	brpl	.-8      	; 0x6c8 <_Z13LCD_WriteCharc+0x22>
     6d0:	20 23       	and	r18, r16
     6d2:	31 23       	and	r19, r17
     6d4:	04 2e       	mov	r0, r20
     6d6:	02 c0       	rjmp	.+4      	; 0x6dc <_Z13LCD_WriteCharc+0x36>
     6d8:	35 95       	asr	r19
     6da:	27 95       	ror	r18
     6dc:	0a 94       	dec	r0
     6de:	e2 f7       	brpl	.-8      	; 0x6d8 <_Z13LCD_WriteCharc+0x32>
     6e0:	21 30       	cpi	r18, 0x01	; 1
     6e2:	31 05       	cpc	r19, r1
     6e4:	59 f4       	brne	.+22     	; 0x6fc <_Z13LCD_WriteCharc+0x56>
			PORTK |= (1 << dataPin[i]);
     6e6:	2c 91       	ld	r18, X
     6e8:	ce 01       	movw	r24, r28
     6ea:	00 80       	ld	r0, Z
     6ec:	02 c0       	rjmp	.+4      	; 0x6f2 <_Z13LCD_WriteCharc+0x4c>
     6ee:	88 0f       	add	r24, r24
     6f0:	99 1f       	adc	r25, r25
     6f2:	0a 94       	dec	r0
     6f4:	e2 f7       	brpl	.-8      	; 0x6ee <_Z13LCD_WriteCharc+0x48>
     6f6:	82 2b       	or	r24, r18
     6f8:	8c 93       	st	X, r24
     6fa:	0c c0       	rjmp	.+24     	; 0x714 <_Z13LCD_WriteCharc+0x6e>
		} else {
			PORTK &= ~(1 << dataPin[i]);
     6fc:	2c 91       	ld	r18, X
     6fe:	be 01       	movw	r22, r28
     700:	00 80       	ld	r0, Z
     702:	02 c0       	rjmp	.+4      	; 0x708 <_Z13LCD_WriteCharc+0x62>
     704:	66 0f       	add	r22, r22
     706:	77 1f       	adc	r23, r23
     708:	0a 94       	dec	r0
     70a:	e2 f7       	brpl	.-8      	; 0x704 <_Z13LCD_WriteCharc+0x5e>
     70c:	96 2f       	mov	r25, r22
     70e:	90 95       	com	r25
     710:	92 23       	and	r25, r18
     712:	9c 93       	st	X, r25
  * @param c: char to be written on the LCD
	* @retval None
	*/
void LCD_WriteChar(char c){
	int i;
	for (i = 0; i < 8; i++) {
     714:	4f 5f       	subi	r20, 0xFF	; 255
     716:	5f 4f       	sbci	r21, 0xFF	; 255
     718:	32 96       	adiw	r30, 0x02	; 2
     71a:	48 30       	cpi	r20, 0x08	; 8
     71c:	51 05       	cpc	r21, r1
     71e:	89 f6       	brne	.-94     	; 0x6c2 <_Z13LCD_WriteCharc+0x1c>
			PORTK |= (1 << dataPin[i]);
		} else {
			PORTK &= ~(1 << dataPin[i]);
		}
	}
	enable();
     720:	a4 df       	rcall	.-184    	; 0x66a <_Z6enablev>
}
     722:	df 91       	pop	r29
     724:	cf 91       	pop	r28
     726:	1f 91       	pop	r17
     728:	0f 91       	pop	r16
     72a:	08 95       	ret

0000072c <_Z12clearDisplayv>:
	* @brief Clear every character on the display and returns to the first address of display
	* @param None
	* @retval None
	*/
void clearDisplay(void){
	PORTL &= ~(1 << RS);
     72c:	eb e0       	ldi	r30, 0x0B	; 11
     72e:	f1 e0       	ldi	r31, 0x01	; 1
     730:	80 81       	ld	r24, Z
     732:	8f 7d       	andi	r24, 0xDF	; 223
     734:	80 83       	st	Z, r24
	PORTL &= ~(1 << RW);
     736:	80 81       	ld	r24, Z
     738:	8f 7b       	andi	r24, 0xBF	; 191
     73a:	80 83       	st	Z, r24
	PORTK &= ~(1 << DB7);
     73c:	e8 e0       	ldi	r30, 0x08	; 8
     73e:	f1 e0       	ldi	r31, 0x01	; 1
     740:	80 81       	ld	r24, Z
     742:	8f 77       	andi	r24, 0x7F	; 127
     744:	80 83       	st	Z, r24
	PORTK &= ~(1 << DB6);
     746:	80 81       	ld	r24, Z
     748:	8f 7b       	andi	r24, 0xBF	; 191
     74a:	80 83       	st	Z, r24
	PORTK &= ~(1 << DB5);
     74c:	80 81       	ld	r24, Z
     74e:	8f 7d       	andi	r24, 0xDF	; 223
     750:	80 83       	st	Z, r24
	PORTK &= ~(1 << DB4);
     752:	80 81       	ld	r24, Z
     754:	8f 7e       	andi	r24, 0xEF	; 239
     756:	80 83       	st	Z, r24
	PORTK &= ~(1 << DB3);
     758:	80 81       	ld	r24, Z
     75a:	87 7f       	andi	r24, 0xF7	; 247
     75c:	80 83       	st	Z, r24
	PORTK &= ~(1 << DB2);
     75e:	80 81       	ld	r24, Z
     760:	8b 7f       	andi	r24, 0xFB	; 251
     762:	80 83       	st	Z, r24
	PORTK &= ~(1 << DB1);
     764:	80 81       	ld	r24, Z
     766:	8d 7f       	andi	r24, 0xFD	; 253
     768:	80 83       	st	Z, r24
	PORTK |= (1 << DB0);
     76a:	80 81       	ld	r24, Z
     76c:	81 60       	ori	r24, 0x01	; 1
     76e:	80 83       	st	Z, r24
	enable();
     770:	7c df       	rcall	.-264    	; 0x66a <_Z6enablev>
	/* extra wait time from the datasheet 1.53ms */
	TCNT1L = 0, TCNT1H = 0;
     772:	10 92 84 00 	sts	0x0084, r1	; 0x800084 <__TEXT_REGION_LENGTH__+0x700084>
     776:	10 92 85 00 	sts	0x0085, r1	; 0x800085 <__TEXT_REGION_LENGTH__+0x700085>
	while ((TCNT1L | TCNT1H << 8) < WAIT_TIME_AFTER_RESET){/* delay for synchronization */}	
     77a:	a4 e8       	ldi	r26, 0x84	; 132
     77c:	b0 e0       	ldi	r27, 0x00	; 0
     77e:	e5 e8       	ldi	r30, 0x85	; 133
     780:	f0 e0       	ldi	r31, 0x00	; 0
     782:	8c 91       	ld	r24, X
     784:	20 81       	ld	r18, Z
     786:	90 e0       	ldi	r25, 0x00	; 0
     788:	92 2b       	or	r25, r18
     78a:	80 3d       	cpi	r24, 0xD0	; 208
     78c:	97 40       	sbci	r25, 0x07	; 7
     78e:	cc f3       	brlt	.-14     	; 0x782 <_Z12clearDisplayv+0x56>
	TCNT1L = 0, TCNT1H = 0;
     790:	10 92 84 00 	sts	0x0084, r1	; 0x800084 <__TEXT_REGION_LENGTH__+0x700084>
     794:	10 92 85 00 	sts	0x0085, r1	; 0x800085 <__TEXT_REGION_LENGTH__+0x700085>
     798:	08 95       	ret

0000079a <_Z9SetAdressi>:
	* @retval None
	*	@note When 1-line display mode (N=LOW), DDRAM address is form 0x00 to 0x4F
	* 			In 2-line display mode (N=HIGH), DDRAM address is form 0x00 to 0x27 for first line
	*				and 0x40 to 0x67 for second line
	*/
void SetAdress(int address){
     79a:	0f 93       	push	r16
     79c:	1f 93       	push	r17
     79e:	cf 93       	push	r28
     7a0:	df 93       	push	r29
     7a2:	8c 01       	movw	r16, r24
  int i;
	PORTL &= ~(1 << RS);
     7a4:	eb e0       	ldi	r30, 0x0B	; 11
     7a6:	f1 e0       	ldi	r31, 0x01	; 1
     7a8:	80 81       	ld	r24, Z
     7aa:	8f 7d       	andi	r24, 0xDF	; 223
     7ac:	80 83       	st	Z, r24
	PORTL &= ~(1 << RW);
     7ae:	80 81       	ld	r24, Z
     7b0:	8f 7b       	andi	r24, 0xBF	; 191
     7b2:	80 83       	st	Z, r24
	PORTK |= (1 << DB7);
     7b4:	e8 e0       	ldi	r30, 0x08	; 8
     7b6:	f1 e0       	ldi	r31, 0x01	; 1
     7b8:	80 81       	ld	r24, Z
     7ba:	80 68       	ori	r24, 0x80	; 128
     7bc:	80 83       	st	Z, r24
     7be:	e0 e0       	ldi	r30, 0x00	; 0
     7c0:	f2 e0       	ldi	r31, 0x02	; 2
	/* set DB0 to DB6 to the address of the DDRAM */
	for (i = 0; i < 7; i++) {
     7c2:	40 e0       	ldi	r20, 0x00	; 0
     7c4:	50 e0       	ldi	r21, 0x00	; 0
		if ((address & (1 << i)) >> i == 1) {
     7c6:	c1 e0       	ldi	r28, 0x01	; 1
     7c8:	d0 e0       	ldi	r29, 0x00	; 0
			PORTK |= (1 << dataPin[i]);
		} else {
			PORTK &= ~(1 << dataPin[i]);
     7ca:	a8 e0       	ldi	r26, 0x08	; 8
     7cc:	b1 e0       	ldi	r27, 0x01	; 1
	PORTL &= ~(1 << RS);
	PORTL &= ~(1 << RW);
	PORTK |= (1 << DB7);
	/* set DB0 to DB6 to the address of the DDRAM */
	for (i = 0; i < 7; i++) {
		if ((address & (1 << i)) >> i == 1) {
     7ce:	9e 01       	movw	r18, r28
     7d0:	04 2e       	mov	r0, r20
     7d2:	02 c0       	rjmp	.+4      	; 0x7d8 <_Z9SetAdressi+0x3e>
     7d4:	22 0f       	add	r18, r18
     7d6:	33 1f       	adc	r19, r19
     7d8:	0a 94       	dec	r0
     7da:	e2 f7       	brpl	.-8      	; 0x7d4 <_Z9SetAdressi+0x3a>
     7dc:	20 23       	and	r18, r16
     7de:	31 23       	and	r19, r17
     7e0:	04 2e       	mov	r0, r20
     7e2:	02 c0       	rjmp	.+4      	; 0x7e8 <_Z9SetAdressi+0x4e>
     7e4:	35 95       	asr	r19
     7e6:	27 95       	ror	r18
     7e8:	0a 94       	dec	r0
     7ea:	e2 f7       	brpl	.-8      	; 0x7e4 <_Z9SetAdressi+0x4a>
     7ec:	21 30       	cpi	r18, 0x01	; 1
     7ee:	31 05       	cpc	r19, r1
     7f0:	59 f4       	brne	.+22     	; 0x808 <_Z9SetAdressi+0x6e>
			PORTK |= (1 << dataPin[i]);
     7f2:	2c 91       	ld	r18, X
     7f4:	ce 01       	movw	r24, r28
     7f6:	00 80       	ld	r0, Z
     7f8:	02 c0       	rjmp	.+4      	; 0x7fe <_Z9SetAdressi+0x64>
     7fa:	88 0f       	add	r24, r24
     7fc:	99 1f       	adc	r25, r25
     7fe:	0a 94       	dec	r0
     800:	e2 f7       	brpl	.-8      	; 0x7fa <_Z9SetAdressi+0x60>
     802:	82 2b       	or	r24, r18
     804:	8c 93       	st	X, r24
     806:	0c c0       	rjmp	.+24     	; 0x820 <_Z9SetAdressi+0x86>
		} else {
			PORTK &= ~(1 << dataPin[i]);
     808:	2c 91       	ld	r18, X
     80a:	be 01       	movw	r22, r28
     80c:	00 80       	ld	r0, Z
     80e:	02 c0       	rjmp	.+4      	; 0x814 <_Z9SetAdressi+0x7a>
     810:	66 0f       	add	r22, r22
     812:	77 1f       	adc	r23, r23
     814:	0a 94       	dec	r0
     816:	e2 f7       	brpl	.-8      	; 0x810 <_Z9SetAdressi+0x76>
     818:	96 2f       	mov	r25, r22
     81a:	90 95       	com	r25
     81c:	92 23       	and	r25, r18
     81e:	9c 93       	st	X, r25
  int i;
	PORTL &= ~(1 << RS);
	PORTL &= ~(1 << RW);
	PORTK |= (1 << DB7);
	/* set DB0 to DB6 to the address of the DDRAM */
	for (i = 0; i < 7; i++) {
     820:	4f 5f       	subi	r20, 0xFF	; 255
     822:	5f 4f       	sbci	r21, 0xFF	; 255
     824:	32 96       	adiw	r30, 0x02	; 2
     826:	47 30       	cpi	r20, 0x07	; 7
     828:	51 05       	cpc	r21, r1
     82a:	89 f6       	brne	.-94     	; 0x7ce <_Z9SetAdressi+0x34>
			PORTK |= (1 << dataPin[i]);
		} else {
			PORTK &= ~(1 << dataPin[i]);
		}
	}
	enable();
     82c:	1e df       	rcall	.-452    	; 0x66a <_Z6enablev>
}
     82e:	df 91       	pop	r29
     830:	cf 91       	pop	r28
     832:	1f 91       	pop	r17
     834:	0f 91       	pop	r16
     836:	08 95       	ret

00000838 <_Z10returnHomev>:
	* @brief change the address of the LCD pointer to the first one
	* @param None
	* @retval None
	*/
void returnHome(void){
	PORTL &= ~(1 << RS);
     838:	eb e0       	ldi	r30, 0x0B	; 11
     83a:	f1 e0       	ldi	r31, 0x01	; 1
     83c:	80 81       	ld	r24, Z
     83e:	8f 7d       	andi	r24, 0xDF	; 223
     840:	80 83       	st	Z, r24
	PORTL &= ~(1 << RW);
     842:	80 81       	ld	r24, Z
     844:	8f 7b       	andi	r24, 0xBF	; 191
     846:	80 83       	st	Z, r24
	PORTK &= ~(1 << DB7);
     848:	e8 e0       	ldi	r30, 0x08	; 8
     84a:	f1 e0       	ldi	r31, 0x01	; 1
     84c:	80 81       	ld	r24, Z
     84e:	8f 77       	andi	r24, 0x7F	; 127
     850:	80 83       	st	Z, r24
	PORTK &= ~(1 << DB6);
     852:	80 81       	ld	r24, Z
     854:	8f 7b       	andi	r24, 0xBF	; 191
     856:	80 83       	st	Z, r24
	PORTK &= ~(1 << DB5);
     858:	80 81       	ld	r24, Z
     85a:	8f 7d       	andi	r24, 0xDF	; 223
     85c:	80 83       	st	Z, r24
	PORTK &= ~(1 << DB4);
     85e:	80 81       	ld	r24, Z
     860:	8f 7e       	andi	r24, 0xEF	; 239
     862:	80 83       	st	Z, r24
	PORTK &= ~(1 << DB3);
     864:	80 81       	ld	r24, Z
     866:	87 7f       	andi	r24, 0xF7	; 247
     868:	80 83       	st	Z, r24
	PORTK &= ~(1 << DB2);
     86a:	80 81       	ld	r24, Z
     86c:	8b 7f       	andi	r24, 0xFB	; 251
     86e:	80 83       	st	Z, r24
	PORTK |= (1 << DB1);
     870:	80 81       	ld	r24, Z
     872:	82 60       	ori	r24, 0x02	; 2
     874:	80 83       	st	Z, r24
	PORTK &= ~(1 << DB0);
     876:	80 81       	ld	r24, Z
     878:	8e 7f       	andi	r24, 0xFE	; 254
     87a:	80 83       	st	Z, r24
	enable();
     87c:	f6 de       	rcall	.-532    	; 0x66a <_Z6enablev>
	/* extra wait time from the datasheet 1.53ms */
	TCNT1L = 0, TCNT1H = 0;
     87e:	10 92 84 00 	sts	0x0084, r1	; 0x800084 <__TEXT_REGION_LENGTH__+0x700084>
     882:	10 92 85 00 	sts	0x0085, r1	; 0x800085 <__TEXT_REGION_LENGTH__+0x700085>
	while ((TCNT1L | TCNT1H << 8) < WAIT_TIME_AFTER_RESET){/* delay for synchronization */}
     886:	a4 e8       	ldi	r26, 0x84	; 132
     888:	b0 e0       	ldi	r27, 0x00	; 0
     88a:	e5 e8       	ldi	r30, 0x85	; 133
     88c:	f0 e0       	ldi	r31, 0x00	; 0
     88e:	8c 91       	ld	r24, X
     890:	20 81       	ld	r18, Z
     892:	90 e0       	ldi	r25, 0x00	; 0
     894:	92 2b       	or	r25, r18
     896:	80 3d       	cpi	r24, 0xD0	; 208
     898:	97 40       	sbci	r25, 0x07	; 7
     89a:	cc f3       	brlt	.-14     	; 0x88e <_Z10returnHomev+0x56>
	TCNT1L = 0, TCNT1H = 0;
     89c:	10 92 84 00 	sts	0x0084, r1	; 0x800084 <__TEXT_REGION_LENGTH__+0x700084>
     8a0:	10 92 85 00 	sts	0x0085, r1	; 0x800085 <__TEXT_REGION_LENGTH__+0x700085>
     8a4:	08 95       	ret

000008a6 <_Z9inputModev>:
	* @brief set up pins to input mode
	* @param None
	* @retval None
	*/
void inputMode(void){
	PORTL |= (1 << RS);
     8a6:	eb e0       	ldi	r30, 0x0B	; 11
     8a8:	f1 e0       	ldi	r31, 0x01	; 1
     8aa:	80 81       	ld	r24, Z
     8ac:	80 62       	ori	r24, 0x20	; 32
     8ae:	80 83       	st	Z, r24
	PORTL &= ~(1 << RW);
     8b0:	80 81       	ld	r24, Z
     8b2:	8f 7b       	andi	r24, 0xBF	; 191
     8b4:	80 83       	st	Z, r24
     8b6:	08 95       	ret

000008b8 <_Z15LCD_WriteStringPc>:
/**
	* @brief send one by one all the character of the string to LCD_WriteChar()
  * @param string: String to be printed on the LCD
	* @retval None
	*/
void LCD_WriteString(char * string){
     8b8:	0f 93       	push	r16
     8ba:	1f 93       	push	r17
     8bc:	cf 93       	push	r28
     8be:	df 93       	push	r29
     8c0:	8c 01       	movw	r16, r24
	int i;
	inputMode(); /************ NOT sure we need this */
     8c2:	f1 df       	rcall	.-30     	; 0x8a6 <_Z9inputModev>
	/* Extract each char individually and calls LCD_WriteChar for each one */
	/* until it hits the MAX_NUMBER_CHAR_LCD_DISPLAY or the end char \0 */
	for (i = 0; (i < MAX_NUMBER_CHAR_LCD_DISPLAY) && (string[i] != '\0') ; i++){
     8c4:	f8 01       	movw	r30, r16
     8c6:	80 81       	ld	r24, Z
     8c8:	81 11       	cpse	r24, r1
     8ca:	09 c0       	rjmp	.+18     	; 0x8de <_Z15LCD_WriteStringPc+0x26>
     8cc:	0e c0       	rjmp	.+28     	; 0x8ea <_Z15LCD_WriteStringPc+0x32>
		LCD_WriteChar(string[i]);
     8ce:	eb de       	rcall	.-554    	; 0x6a6 <_Z13LCD_WriteCharc>
void LCD_WriteString(char * string){
	int i;
	inputMode(); /************ NOT sure we need this */
	/* Extract each char individually and calls LCD_WriteChar for each one */
	/* until it hits the MAX_NUMBER_CHAR_LCD_DISPLAY or the end char \0 */
	for (i = 0; (i < MAX_NUMBER_CHAR_LCD_DISPLAY) && (string[i] != '\0') ; i++){
     8d0:	c0 17       	cp	r28, r16
     8d2:	d1 07       	cpc	r29, r17
     8d4:	51 f0       	breq	.+20     	; 0x8ea <_Z15LCD_WriteStringPc+0x32>
     8d6:	89 91       	ld	r24, Y+
     8d8:	81 11       	cpse	r24, r1
     8da:	f9 cf       	rjmp	.-14     	; 0x8ce <_Z15LCD_WriteStringPc+0x16>
     8dc:	06 c0       	rjmp	.+12     	; 0x8ea <_Z15LCD_WriteStringPc+0x32>
		LCD_WriteChar(string[i]);
     8de:	e3 de       	rcall	.-570    	; 0x6a6 <_Z13LCD_WriteCharc>
     8e0:	e8 01       	movw	r28, r16
     8e2:	21 96       	adiw	r28, 0x01	; 1
     8e4:	00 5f       	subi	r16, 0xF0	; 240
     8e6:	1f 4f       	sbci	r17, 0xFF	; 255
     8e8:	f6 cf       	rjmp	.-20     	; 0x8d6 <_Z15LCD_WriteStringPc+0x1e>
	}
}
     8ea:	df 91       	pop	r29
     8ec:	cf 91       	pop	r28
     8ee:	1f 91       	pop	r17
     8f0:	0f 91       	pop	r16
     8f2:	08 95       	ret

000008f4 <_Z6turnOnv>:
	* @brief Turn on the display
	* @param None
	* @retval None
	*/
void turnOn(void){
	PORTL &= ~(1 << RS);
     8f4:	eb e0       	ldi	r30, 0x0B	; 11
     8f6:	f1 e0       	ldi	r31, 0x01	; 1
     8f8:	80 81       	ld	r24, Z
     8fa:	8f 7d       	andi	r24, 0xDF	; 223
     8fc:	80 83       	st	Z, r24
	PORTL &= ~(1 << RW);
     8fe:	80 81       	ld	r24, Z
     900:	8f 7b       	andi	r24, 0xBF	; 191
     902:	80 83       	st	Z, r24
	PORTK &= ~(1 << DB7);
     904:	e8 e0       	ldi	r30, 0x08	; 8
     906:	f1 e0       	ldi	r31, 0x01	; 1
     908:	80 81       	ld	r24, Z
     90a:	8f 77       	andi	r24, 0x7F	; 127
     90c:	80 83       	st	Z, r24
	PORTK &= ~(1 << DB6);
     90e:	80 81       	ld	r24, Z
     910:	8f 7b       	andi	r24, 0xBF	; 191
     912:	80 83       	st	Z, r24
	PORTK &= ~(1 << DB5);
     914:	80 81       	ld	r24, Z
     916:	8f 7d       	andi	r24, 0xDF	; 223
     918:	80 83       	st	Z, r24
	PORTK &= ~(1 << DB4);
     91a:	80 81       	ld	r24, Z
     91c:	8f 7e       	andi	r24, 0xEF	; 239
     91e:	80 83       	st	Z, r24
	PORTK |= (1 << DB3);
     920:	80 81       	ld	r24, Z
     922:	88 60       	ori	r24, 0x08	; 8
     924:	80 83       	st	Z, r24
	PORTK |= (1 << DB2);
     926:	80 81       	ld	r24, Z
     928:	84 60       	ori	r24, 0x04	; 4
     92a:	80 83       	st	Z, r24
	PORTK &= ~(1 << DB1);
     92c:	80 81       	ld	r24, Z
     92e:	8d 7f       	andi	r24, 0xFD	; 253
     930:	80 83       	st	Z, r24
	PORTK &= ~(1 << DB0);
     932:	80 81       	ld	r24, Z
     934:	8e 7f       	andi	r24, 0xFE	; 254
     936:	80 83       	st	Z, r24
	enable();
     938:	98 ce       	rjmp	.-720    	; 0x66a <_Z6enablev>
     93a:	08 95       	ret

0000093c <_Z11functionSetv>:
	* @brief Set up length of data bus, and size of display
	* @param None
	* @retval None
	*/
void functionSet(void){
	PORTL &= ~(1 << RS);
     93c:	eb e0       	ldi	r30, 0x0B	; 11
     93e:	f1 e0       	ldi	r31, 0x01	; 1
     940:	80 81       	ld	r24, Z
     942:	8f 7d       	andi	r24, 0xDF	; 223
     944:	80 83       	st	Z, r24
	PORTL &= ~(1 << RW);
     946:	80 81       	ld	r24, Z
     948:	8f 7b       	andi	r24, 0xBF	; 191
     94a:	80 83       	st	Z, r24
	PORTK &= ~(1 << DB7);
     94c:	e8 e0       	ldi	r30, 0x08	; 8
     94e:	f1 e0       	ldi	r31, 0x01	; 1
     950:	80 81       	ld	r24, Z
     952:	8f 77       	andi	r24, 0x7F	; 127
     954:	80 83       	st	Z, r24
	PORTK &= ~(1 << DB6);
     956:	80 81       	ld	r24, Z
     958:	8f 7b       	andi	r24, 0xBF	; 191
     95a:	80 83       	st	Z, r24
	PORTK |= (1 << DB5);
     95c:	80 81       	ld	r24, Z
     95e:	80 62       	ori	r24, 0x20	; 32
     960:	80 83       	st	Z, r24
	PORTK |= (1 << DB4);
     962:	80 81       	ld	r24, Z
     964:	80 61       	ori	r24, 0x10	; 16
     966:	80 83       	st	Z, r24
	PORTK |= (1 << DB3);
     968:	80 81       	ld	r24, Z
     96a:	88 60       	ori	r24, 0x08	; 8
     96c:	80 83       	st	Z, r24
	PORTK &= ~(1 << DB2);
     96e:	80 81       	ld	r24, Z
     970:	8b 7f       	andi	r24, 0xFB	; 251
     972:	80 83       	st	Z, r24
	PORTK &= ~(1 << DB1);
     974:	80 81       	ld	r24, Z
     976:	8d 7f       	andi	r24, 0xFD	; 253
     978:	80 83       	st	Z, r24
	PORTK &= ~(1 << DB0);
     97a:	80 81       	ld	r24, Z
     97c:	8e 7f       	andi	r24, 0xFE	; 254
     97e:	80 83       	st	Z, r24
	enable();
     980:	74 ce       	rjmp	.-792    	; 0x66a <_Z6enablev>
     982:	08 95       	ret

00000984 <_Z9entryModev>:
	* @brief set up the entry mode of the display
	* @param None
	* @retval None
	*/
void entryMode(void){
	PORTL &= ~(1 << RS);
     984:	eb e0       	ldi	r30, 0x0B	; 11
     986:	f1 e0       	ldi	r31, 0x01	; 1
     988:	80 81       	ld	r24, Z
     98a:	8f 7d       	andi	r24, 0xDF	; 223
     98c:	80 83       	st	Z, r24
	PORTL &= ~(1 << RW);
     98e:	80 81       	ld	r24, Z
     990:	8f 7b       	andi	r24, 0xBF	; 191
     992:	80 83       	st	Z, r24
	PORTK &= ~(1 << DB7);
     994:	e8 e0       	ldi	r30, 0x08	; 8
     996:	f1 e0       	ldi	r31, 0x01	; 1
     998:	80 81       	ld	r24, Z
     99a:	8f 77       	andi	r24, 0x7F	; 127
     99c:	80 83       	st	Z, r24
	PORTK &= ~(1 << DB6);
     99e:	80 81       	ld	r24, Z
     9a0:	8f 7b       	andi	r24, 0xBF	; 191
     9a2:	80 83       	st	Z, r24
	PORTK &= ~(1 << DB5);
     9a4:	80 81       	ld	r24, Z
     9a6:	8f 7d       	andi	r24, 0xDF	; 223
     9a8:	80 83       	st	Z, r24
	PORTK &= ~(1 << DB4);
     9aa:	80 81       	ld	r24, Z
     9ac:	8f 7e       	andi	r24, 0xEF	; 239
     9ae:	80 83       	st	Z, r24
	PORTK &= ~(1 << DB3);
     9b0:	80 81       	ld	r24, Z
     9b2:	87 7f       	andi	r24, 0xF7	; 247
     9b4:	80 83       	st	Z, r24
	PORTK |= (1 << DB2);
     9b6:	80 81       	ld	r24, Z
     9b8:	84 60       	ori	r24, 0x04	; 4
     9ba:	80 83       	st	Z, r24
	PORTK |= (1 << DB1);
     9bc:	80 81       	ld	r24, Z
     9be:	82 60       	ori	r24, 0x02	; 2
     9c0:	80 83       	st	Z, r24
	PORTK &= ~(1 << DB0);
     9c2:	80 81       	ld	r24, Z
     9c4:	8e 7f       	andi	r24, 0xFE	; 254
     9c6:	80 83       	st	Z, r24
	enable();
     9c8:	50 ce       	rjmp	.-864    	; 0x66a <_Z6enablev>
     9ca:	08 95       	ret

000009cc <_Z7initLCDv>:
	* @param None
	* @retval None
	*/
void initLCD(void){
	//init timer for LCD control. Counts up every 1us
	TCCR1B |= (1 << CS00); /*prescaler 1*/
     9cc:	e1 e8       	ldi	r30, 0x81	; 129
     9ce:	f0 e0       	ldi	r31, 0x00	; 0
     9d0:	80 81       	ld	r24, Z
     9d2:	81 60       	ori	r24, 0x01	; 1
     9d4:	80 83       	st	Z, r24
	//set pins as outputs
	DDRK |= (1 << DDK7) | (1 << DDK6) | (1 << DDK5) | (1 << DDK4) | (1 << DDK3) | (1 << DDK2) | (1 << DDK1) | (1 << DDK0);
     9d6:	e7 e0       	ldi	r30, 0x07	; 7
     9d8:	f1 e0       	ldi	r31, 0x01	; 1
     9da:	80 81       	ld	r24, Z
     9dc:	8f ef       	ldi	r24, 0xFF	; 255
     9de:	80 83       	st	Z, r24
	DDRL |= (1 << DDL7) | (1 << DDL6) | (1 << DDL5);
     9e0:	ea e0       	ldi	r30, 0x0A	; 10
     9e2:	f1 e0       	ldi	r31, 0x01	; 1
     9e4:	80 81       	ld	r24, Z
     9e6:	80 6e       	ori	r24, 0xE0	; 224
     9e8:	80 83       	st	Z, r24
	clearDisplay();
     9ea:	a0 de       	rcall	.-704    	; 0x72c <_Z12clearDisplayv>
	turnOn();
     9ec:	83 df       	rcall	.-250    	; 0x8f4 <_Z6turnOnv>
	functionSet();
     9ee:	a6 df       	rcall	.-180    	; 0x93c <_Z11functionSetv>
	entryMode();
     9f0:	c9 df       	rcall	.-110    	; 0x984 <_Z9entryModev>
	returnHome();
     9f2:	22 cf       	rjmp	.-444    	; 0x838 <_Z10returnHomev>
     9f4:	08 95       	ret

000009f6 <main>:
#include "interrupt.h"
#include "lcd.h"
//#include "fonction.h"

int main()
{
     9f6:	cf 93       	push	r28
     9f8:	df 93       	push	r29
     9fa:	cd b7       	in	r28, 0x3d	; 61
     9fc:	de b7       	in	r29, 0x3e	; 62
     9fe:	62 97       	sbiw	r28, 0x12	; 18
     a00:	0f b6       	in	r0, 0x3f	; 63
     a02:	f8 94       	cli
     a04:	de bf       	out	0x3e, r29	; 62
     a06:	0f be       	out	0x3f, r0	; 63
     a08:	cd bf       	out	0x3d, r28	; 61
	uint16_t temp = 550;
	//char* buffers for the use of itoa
	char str[17];
	//create ESC object
	esc allESC;
     a0a:	ce 01       	movw	r24, r28
     a0c:	42 96       	adiw	r24, 0x12	; 18
     a0e:	8a db       	rcall	.-2284   	; 0x124 <_ZN3escC1Ev>
	// initialize ESC
	allESC.initialize();
     a10:	ce 01       	movw	r24, r28
     a12:	42 96       	adiw	r24, 0x12	; 18
     a14:	88 db       	rcall	.-2288   	; 0x126 <_ZN3esc10initializeEv>
	//initialize INT
	initializeInterrupt();
     a16:	ce db       	rcall	.-2148   	; 0x1b4 <_Z19initializeInterruptv>
	//initialize Radio Controller counter
	initializecounterPWMread();
     a18:	de db       	rcall	.-2116   	; 0x1d6 <_Z24initializecounterPWMreadv>
	//initialize LCD
	initLCD(); 		/* configure LCD */
     a1a:	d8 df       	rcall	.-80     	; 0x9cc <_Z7initLCDv>
			//OCR4BH = 0x02;			
			button_rising = false;
		}
		else
		{
			OCR4A = ch_3_pw/2;
     a1c:	0f 2e       	mov	r0, r31
     a1e:	f8 ea       	ldi	r31, 0xA8	; 168
     a20:	af 2e       	mov	r10, r31
     a22:	b1 2c       	mov	r11, r1
     a24:	f0 2d       	mov	r31, r0
			OCR4B = ch_3_pw/2;
     a26:	0f 2e       	mov	r0, r31
     a28:	fa ea       	ldi	r31, 0xAA	; 170
     a2a:	cf 2e       	mov	r12, r31
     a2c:	d1 2c       	mov	r13, r1
     a2e:	f0 2d       	mov	r31, r0
	while(1)
	{
		
		if (button_falling)
		{
			OCR4A = 1500;			
     a30:	0f 2e       	mov	r0, r31
     a32:	fc ed       	ldi	r31, 0xDC	; 220
     a34:	8f 2e       	mov	r8, r31
     a36:	f5 e0       	ldi	r31, 0x05	; 5
     a38:	9f 2e       	mov	r9, r31
     a3a:	f0 2d       	mov	r31, r0
		{
			OCR4A = ch_3_pw/2;
			OCR4B = ch_3_pw/2;
		}
			clearDisplay();
			sprintf(str, "%u    %u     ", OCR4A, OCR4B);
     a3c:	0f 2e       	mov	r0, r31
     a3e:	f0 e1       	ldi	r31, 0x10	; 16
     a40:	ef 2e       	mov	r14, r31
     a42:	f2 e0       	ldi	r31, 0x02	; 2
     a44:	ff 2e       	mov	r15, r31
     a46:	f0 2d       	mov	r31, r0
     a48:	8e 01       	movw	r16, r28
     a4a:	0f 5f       	subi	r16, 0xFF	; 255
     a4c:	1f 4f       	sbci	r17, 0xFF	; 255
	//LCD_WriteString("  chier dessus"); 
	// run forever
	while(1)
	{
		
		if (button_falling)
     a4e:	80 91 3b 02 	lds	r24, 0x023B	; 0x80023b <button_falling>
     a52:	88 23       	and	r24, r24
     a54:	91 f0       	breq	.+36     	; 0xa7a <main+0x84>
		{
			OCR4A = 1500;			
     a56:	f5 01       	movw	r30, r10
     a58:	91 82       	std	Z+1, r9	; 0x01
     a5a:	80 82       	st	Z, r8
			OCR4B = 1500;	
     a5c:	f6 01       	movw	r30, r12
     a5e:	91 82       	std	Z+1, r9	; 0x01
     a60:	80 82       	st	Z, r8
     a62:	ff e3       	ldi	r31, 0x3F	; 63
     a64:	2d e0       	ldi	r18, 0x0D	; 13
     a66:	83 e0       	ldi	r24, 0x03	; 3
     a68:	f1 50       	subi	r31, 0x01	; 1
     a6a:	20 40       	sbci	r18, 0x00	; 0
     a6c:	80 40       	sbci	r24, 0x00	; 0
     a6e:	e1 f7       	brne	.-8      	; 0xa68 <main+0x72>
     a70:	00 c0       	rjmp	.+0      	; 0xa72 <main+0x7c>
     a72:	00 00       	nop
			//OCR4AL = 0x00;
			//OCR4AH = 0x03;
			//OCR4BL = 0x00;
			//OCR4BH = 0x03;
			_delay_ms(1000);
			button_falling = false;
     a74:	10 92 3b 02 	sts	0x023B, r1	; 0x80023b <button_falling>
     a78:	19 c0       	rjmp	.+50     	; 0xaac <main+0xb6>
		}
		else if (button_rising)
     a7a:	80 91 3c 02 	lds	r24, 0x023C	; 0x80023c <button_rising>
     a7e:	88 23       	and	r24, r24
     a80:	19 f0       	breq	.+6      	; 0xa88 <main+0x92>
		{		
			//OCR4AL = 0x00;
			//OCR4AH = 0x02;
			//OCR4BL = 0x00;
			//OCR4BH = 0x02;			
			button_rising = false;
     a82:	10 92 3c 02 	sts	0x023C, r1	; 0x80023c <button_rising>
     a86:	12 c0       	rjmp	.+36     	; 0xaac <main+0xb6>
		}
		else
		{
			OCR4A = ch_3_pw/2;
     a88:	80 91 2d 02 	lds	r24, 0x022D	; 0x80022d <ch_3_pw>
     a8c:	90 91 2e 02 	lds	r25, 0x022E	; 0x80022e <ch_3_pw+0x1>
     a90:	96 95       	lsr	r25
     a92:	87 95       	ror	r24
     a94:	f5 01       	movw	r30, r10
     a96:	91 83       	std	Z+1, r25	; 0x01
     a98:	80 83       	st	Z, r24
			OCR4B = ch_3_pw/2;
     a9a:	80 91 2d 02 	lds	r24, 0x022D	; 0x80022d <ch_3_pw>
     a9e:	90 91 2e 02 	lds	r25, 0x022E	; 0x80022e <ch_3_pw+0x1>
     aa2:	96 95       	lsr	r25
     aa4:	87 95       	ror	r24
     aa6:	f6 01       	movw	r30, r12
     aa8:	91 83       	std	Z+1, r25	; 0x01
     aaa:	80 83       	st	Z, r24
		}
			clearDisplay();
     aac:	3f de       	rcall	.-898    	; 0x72c <_Z12clearDisplayv>
			sprintf(str, "%u    %u     ", OCR4A, OCR4B);
     aae:	f6 01       	movw	r30, r12
     ab0:	20 81       	ld	r18, Z
     ab2:	31 81       	ldd	r19, Z+1	; 0x01
     ab4:	f5 01       	movw	r30, r10
     ab6:	80 81       	ld	r24, Z
     ab8:	91 81       	ldd	r25, Z+1	; 0x01
     aba:	3f 93       	push	r19
     abc:	2f 93       	push	r18
     abe:	9f 93       	push	r25
     ac0:	8f 93       	push	r24
     ac2:	ff 92       	push	r15
     ac4:	ef 92       	push	r14
     ac6:	1f 93       	push	r17
     ac8:	0f 93       	push	r16
     aca:	28 d0       	rcall	.+80     	; 0xb1c <sprintf>
			LCD_WriteString(str);
     acc:	c8 01       	movw	r24, r16
     ace:	f4 de       	rcall	.-536    	; 0x8b8 <_Z15LCD_WriteStringPc>
			SetAdress(64); // goes to line 2 of LCD
     ad0:	80 e4       	ldi	r24, 0x40	; 64
     ad2:	90 e0       	ldi	r25, 0x00	; 0
     ad4:	62 de       	rcall	.-828    	; 0x79a <_Z9SetAdressi>
			sprintf(str, "%u    %u     ", ch_3_pw/2, ch_4_pw/2);
     ad6:	80 91 2b 02 	lds	r24, 0x022B	; 0x80022b <ch_4_pw>
     ada:	90 91 2c 02 	lds	r25, 0x022C	; 0x80022c <ch_4_pw+0x1>
     ade:	96 95       	lsr	r25
     ae0:	87 95       	ror	r24
     ae2:	9f 93       	push	r25
     ae4:	8f 93       	push	r24
     ae6:	80 91 2d 02 	lds	r24, 0x022D	; 0x80022d <ch_3_pw>
     aea:	90 91 2e 02 	lds	r25, 0x022E	; 0x80022e <ch_3_pw+0x1>
     aee:	96 95       	lsr	r25
     af0:	87 95       	ror	r24
     af2:	9f 93       	push	r25
     af4:	8f 93       	push	r24
     af6:	ff 92       	push	r15
     af8:	ef 92       	push	r14
     afa:	1f 93       	push	r17
     afc:	0f 93       	push	r16
     afe:	0e d0       	rcall	.+28     	; 0xb1c <sprintf>
			LCD_WriteString(str);
     b00:	c8 01       	movw	r24, r16
     b02:	da de       	rcall	.-588    	; 0x8b8 <_Z15LCD_WriteStringPc>
     b04:	8f e4       	ldi	r24, 0x4F	; 79
     b06:	93 ec       	ldi	r25, 0xC3	; 195
     b08:	01 97       	sbiw	r24, 0x01	; 1
     b0a:	f1 f7       	brne	.-4      	; 0xb08 <main+0x112>
     b0c:	00 c0       	rjmp	.+0      	; 0xb0e <main+0x118>
     b0e:	00 00       	nop
     b10:	0f b6       	in	r0, 0x3f	; 63
     b12:	f8 94       	cli
     b14:	de bf       	out	0x3e, r29	; 62
     b16:	0f be       	out	0x3f, r0	; 63
     b18:	cd bf       	out	0x3d, r28	; 61
     b1a:	99 cf       	rjmp	.-206    	; 0xa4e <main+0x58>

00000b1c <sprintf>:
     b1c:	0f 93       	push	r16
     b1e:	1f 93       	push	r17
     b20:	cf 93       	push	r28
     b22:	df 93       	push	r29
     b24:	cd b7       	in	r28, 0x3d	; 61
     b26:	de b7       	in	r29, 0x3e	; 62
     b28:	2e 97       	sbiw	r28, 0x0e	; 14
     b2a:	0f b6       	in	r0, 0x3f	; 63
     b2c:	f8 94       	cli
     b2e:	de bf       	out	0x3e, r29	; 62
     b30:	0f be       	out	0x3f, r0	; 63
     b32:	cd bf       	out	0x3d, r28	; 61
     b34:	0e 89       	ldd	r16, Y+22	; 0x16
     b36:	1f 89       	ldd	r17, Y+23	; 0x17
     b38:	86 e0       	ldi	r24, 0x06	; 6
     b3a:	8c 83       	std	Y+4, r24	; 0x04
     b3c:	1a 83       	std	Y+2, r17	; 0x02
     b3e:	09 83       	std	Y+1, r16	; 0x01
     b40:	8f ef       	ldi	r24, 0xFF	; 255
     b42:	9f e7       	ldi	r25, 0x7F	; 127
     b44:	9e 83       	std	Y+6, r25	; 0x06
     b46:	8d 83       	std	Y+5, r24	; 0x05
     b48:	ae 01       	movw	r20, r28
     b4a:	46 5e       	subi	r20, 0xE6	; 230
     b4c:	5f 4f       	sbci	r21, 0xFF	; 255
     b4e:	68 8d       	ldd	r22, Y+24	; 0x18
     b50:	79 8d       	ldd	r23, Y+25	; 0x19
     b52:	ce 01       	movw	r24, r28
     b54:	01 96       	adiw	r24, 0x01	; 1
     b56:	11 d0       	rcall	.+34     	; 0xb7a <vfprintf>
     b58:	2f 81       	ldd	r18, Y+7	; 0x07
     b5a:	38 85       	ldd	r19, Y+8	; 0x08
     b5c:	f8 01       	movw	r30, r16
     b5e:	e2 0f       	add	r30, r18
     b60:	f3 1f       	adc	r31, r19
     b62:	10 82       	st	Z, r1
     b64:	2e 96       	adiw	r28, 0x0e	; 14
     b66:	0f b6       	in	r0, 0x3f	; 63
     b68:	f8 94       	cli
     b6a:	de bf       	out	0x3e, r29	; 62
     b6c:	0f be       	out	0x3f, r0	; 63
     b6e:	cd bf       	out	0x3d, r28	; 61
     b70:	df 91       	pop	r29
     b72:	cf 91       	pop	r28
     b74:	1f 91       	pop	r17
     b76:	0f 91       	pop	r16
     b78:	08 95       	ret

00000b7a <vfprintf>:
     b7a:	2f 92       	push	r2
     b7c:	3f 92       	push	r3
     b7e:	4f 92       	push	r4
     b80:	5f 92       	push	r5
     b82:	6f 92       	push	r6
     b84:	7f 92       	push	r7
     b86:	8f 92       	push	r8
     b88:	9f 92       	push	r9
     b8a:	af 92       	push	r10
     b8c:	bf 92       	push	r11
     b8e:	cf 92       	push	r12
     b90:	df 92       	push	r13
     b92:	ef 92       	push	r14
     b94:	ff 92       	push	r15
     b96:	0f 93       	push	r16
     b98:	1f 93       	push	r17
     b9a:	cf 93       	push	r28
     b9c:	df 93       	push	r29
     b9e:	cd b7       	in	r28, 0x3d	; 61
     ba0:	de b7       	in	r29, 0x3e	; 62
     ba2:	2c 97       	sbiw	r28, 0x0c	; 12
     ba4:	0f b6       	in	r0, 0x3f	; 63
     ba6:	f8 94       	cli
     ba8:	de bf       	out	0x3e, r29	; 62
     baa:	0f be       	out	0x3f, r0	; 63
     bac:	cd bf       	out	0x3d, r28	; 61
     bae:	7c 01       	movw	r14, r24
     bb0:	6b 01       	movw	r12, r22
     bb2:	8a 01       	movw	r16, r20
     bb4:	fc 01       	movw	r30, r24
     bb6:	17 82       	std	Z+7, r1	; 0x07
     bb8:	16 82       	std	Z+6, r1	; 0x06
     bba:	83 81       	ldd	r24, Z+3	; 0x03
     bbc:	81 ff       	sbrs	r24, 1
     bbe:	b0 c1       	rjmp	.+864    	; 0xf20 <vfprintf+0x3a6>
     bc0:	ce 01       	movw	r24, r28
     bc2:	01 96       	adiw	r24, 0x01	; 1
     bc4:	4c 01       	movw	r8, r24
     bc6:	f7 01       	movw	r30, r14
     bc8:	93 81       	ldd	r25, Z+3	; 0x03
     bca:	f6 01       	movw	r30, r12
     bcc:	93 fd       	sbrc	r25, 3
     bce:	85 91       	lpm	r24, Z+
     bd0:	93 ff       	sbrs	r25, 3
     bd2:	81 91       	ld	r24, Z+
     bd4:	6f 01       	movw	r12, r30
     bd6:	88 23       	and	r24, r24
     bd8:	09 f4       	brne	.+2      	; 0xbdc <vfprintf+0x62>
     bda:	9e c1       	rjmp	.+828    	; 0xf18 <vfprintf+0x39e>
     bdc:	85 32       	cpi	r24, 0x25	; 37
     bde:	39 f4       	brne	.+14     	; 0xbee <vfprintf+0x74>
     be0:	93 fd       	sbrc	r25, 3
     be2:	85 91       	lpm	r24, Z+
     be4:	93 ff       	sbrs	r25, 3
     be6:	81 91       	ld	r24, Z+
     be8:	6f 01       	movw	r12, r30
     bea:	85 32       	cpi	r24, 0x25	; 37
     bec:	21 f4       	brne	.+8      	; 0xbf6 <vfprintf+0x7c>
     bee:	b7 01       	movw	r22, r14
     bf0:	90 e0       	ldi	r25, 0x00	; 0
     bf2:	c7 d1       	rcall	.+910    	; 0xf82 <fputc>
     bf4:	e8 cf       	rjmp	.-48     	; 0xbc6 <vfprintf+0x4c>
     bf6:	51 2c       	mov	r5, r1
     bf8:	31 2c       	mov	r3, r1
     bfa:	20 e0       	ldi	r18, 0x00	; 0
     bfc:	20 32       	cpi	r18, 0x20	; 32
     bfe:	a0 f4       	brcc	.+40     	; 0xc28 <vfprintf+0xae>
     c00:	8b 32       	cpi	r24, 0x2B	; 43
     c02:	69 f0       	breq	.+26     	; 0xc1e <vfprintf+0xa4>
     c04:	30 f4       	brcc	.+12     	; 0xc12 <vfprintf+0x98>
     c06:	80 32       	cpi	r24, 0x20	; 32
     c08:	59 f0       	breq	.+22     	; 0xc20 <vfprintf+0xa6>
     c0a:	83 32       	cpi	r24, 0x23	; 35
     c0c:	69 f4       	brne	.+26     	; 0xc28 <vfprintf+0xae>
     c0e:	20 61       	ori	r18, 0x10	; 16
     c10:	2c c0       	rjmp	.+88     	; 0xc6a <vfprintf+0xf0>
     c12:	8d 32       	cpi	r24, 0x2D	; 45
     c14:	39 f0       	breq	.+14     	; 0xc24 <vfprintf+0xaa>
     c16:	80 33       	cpi	r24, 0x30	; 48
     c18:	39 f4       	brne	.+14     	; 0xc28 <vfprintf+0xae>
     c1a:	21 60       	ori	r18, 0x01	; 1
     c1c:	26 c0       	rjmp	.+76     	; 0xc6a <vfprintf+0xf0>
     c1e:	22 60       	ori	r18, 0x02	; 2
     c20:	24 60       	ori	r18, 0x04	; 4
     c22:	23 c0       	rjmp	.+70     	; 0xc6a <vfprintf+0xf0>
     c24:	28 60       	ori	r18, 0x08	; 8
     c26:	21 c0       	rjmp	.+66     	; 0xc6a <vfprintf+0xf0>
     c28:	27 fd       	sbrc	r18, 7
     c2a:	27 c0       	rjmp	.+78     	; 0xc7a <vfprintf+0x100>
     c2c:	30 ed       	ldi	r19, 0xD0	; 208
     c2e:	38 0f       	add	r19, r24
     c30:	3a 30       	cpi	r19, 0x0A	; 10
     c32:	78 f4       	brcc	.+30     	; 0xc52 <vfprintf+0xd8>
     c34:	26 ff       	sbrs	r18, 6
     c36:	06 c0       	rjmp	.+12     	; 0xc44 <vfprintf+0xca>
     c38:	fa e0       	ldi	r31, 0x0A	; 10
     c3a:	5f 9e       	mul	r5, r31
     c3c:	30 0d       	add	r19, r0
     c3e:	11 24       	eor	r1, r1
     c40:	53 2e       	mov	r5, r19
     c42:	13 c0       	rjmp	.+38     	; 0xc6a <vfprintf+0xf0>
     c44:	8a e0       	ldi	r24, 0x0A	; 10
     c46:	38 9e       	mul	r3, r24
     c48:	30 0d       	add	r19, r0
     c4a:	11 24       	eor	r1, r1
     c4c:	33 2e       	mov	r3, r19
     c4e:	20 62       	ori	r18, 0x20	; 32
     c50:	0c c0       	rjmp	.+24     	; 0xc6a <vfprintf+0xf0>
     c52:	8e 32       	cpi	r24, 0x2E	; 46
     c54:	21 f4       	brne	.+8      	; 0xc5e <vfprintf+0xe4>
     c56:	26 fd       	sbrc	r18, 6
     c58:	5f c1       	rjmp	.+702    	; 0xf18 <vfprintf+0x39e>
     c5a:	20 64       	ori	r18, 0x40	; 64
     c5c:	06 c0       	rjmp	.+12     	; 0xc6a <vfprintf+0xf0>
     c5e:	8c 36       	cpi	r24, 0x6C	; 108
     c60:	11 f4       	brne	.+4      	; 0xc66 <vfprintf+0xec>
     c62:	20 68       	ori	r18, 0x80	; 128
     c64:	02 c0       	rjmp	.+4      	; 0xc6a <vfprintf+0xf0>
     c66:	88 36       	cpi	r24, 0x68	; 104
     c68:	41 f4       	brne	.+16     	; 0xc7a <vfprintf+0x100>
     c6a:	f6 01       	movw	r30, r12
     c6c:	93 fd       	sbrc	r25, 3
     c6e:	85 91       	lpm	r24, Z+
     c70:	93 ff       	sbrs	r25, 3
     c72:	81 91       	ld	r24, Z+
     c74:	6f 01       	movw	r12, r30
     c76:	81 11       	cpse	r24, r1
     c78:	c1 cf       	rjmp	.-126    	; 0xbfc <vfprintf+0x82>
     c7a:	98 2f       	mov	r25, r24
     c7c:	9f 7d       	andi	r25, 0xDF	; 223
     c7e:	95 54       	subi	r25, 0x45	; 69
     c80:	93 30       	cpi	r25, 0x03	; 3
     c82:	28 f4       	brcc	.+10     	; 0xc8e <vfprintf+0x114>
     c84:	0c 5f       	subi	r16, 0xFC	; 252
     c86:	1f 4f       	sbci	r17, 0xFF	; 255
     c88:	ff e3       	ldi	r31, 0x3F	; 63
     c8a:	f9 83       	std	Y+1, r31	; 0x01
     c8c:	0d c0       	rjmp	.+26     	; 0xca8 <vfprintf+0x12e>
     c8e:	83 36       	cpi	r24, 0x63	; 99
     c90:	31 f0       	breq	.+12     	; 0xc9e <vfprintf+0x124>
     c92:	83 37       	cpi	r24, 0x73	; 115
     c94:	71 f0       	breq	.+28     	; 0xcb2 <vfprintf+0x138>
     c96:	83 35       	cpi	r24, 0x53	; 83
     c98:	09 f0       	breq	.+2      	; 0xc9c <vfprintf+0x122>
     c9a:	57 c0       	rjmp	.+174    	; 0xd4a <vfprintf+0x1d0>
     c9c:	21 c0       	rjmp	.+66     	; 0xce0 <vfprintf+0x166>
     c9e:	f8 01       	movw	r30, r16
     ca0:	80 81       	ld	r24, Z
     ca2:	89 83       	std	Y+1, r24	; 0x01
     ca4:	0e 5f       	subi	r16, 0xFE	; 254
     ca6:	1f 4f       	sbci	r17, 0xFF	; 255
     ca8:	44 24       	eor	r4, r4
     caa:	43 94       	inc	r4
     cac:	51 2c       	mov	r5, r1
     cae:	54 01       	movw	r10, r8
     cb0:	14 c0       	rjmp	.+40     	; 0xcda <vfprintf+0x160>
     cb2:	38 01       	movw	r6, r16
     cb4:	f2 e0       	ldi	r31, 0x02	; 2
     cb6:	6f 0e       	add	r6, r31
     cb8:	71 1c       	adc	r7, r1
     cba:	f8 01       	movw	r30, r16
     cbc:	a0 80       	ld	r10, Z
     cbe:	b1 80       	ldd	r11, Z+1	; 0x01
     cc0:	26 ff       	sbrs	r18, 6
     cc2:	03 c0       	rjmp	.+6      	; 0xcca <vfprintf+0x150>
     cc4:	65 2d       	mov	r22, r5
     cc6:	70 e0       	ldi	r23, 0x00	; 0
     cc8:	02 c0       	rjmp	.+4      	; 0xcce <vfprintf+0x154>
     cca:	6f ef       	ldi	r22, 0xFF	; 255
     ccc:	7f ef       	ldi	r23, 0xFF	; 255
     cce:	c5 01       	movw	r24, r10
     cd0:	2c 87       	std	Y+12, r18	; 0x0c
     cd2:	4c d1       	rcall	.+664    	; 0xf6c <strnlen>
     cd4:	2c 01       	movw	r4, r24
     cd6:	83 01       	movw	r16, r6
     cd8:	2c 85       	ldd	r18, Y+12	; 0x0c
     cda:	2f 77       	andi	r18, 0x7F	; 127
     cdc:	22 2e       	mov	r2, r18
     cde:	16 c0       	rjmp	.+44     	; 0xd0c <vfprintf+0x192>
     ce0:	38 01       	movw	r6, r16
     ce2:	f2 e0       	ldi	r31, 0x02	; 2
     ce4:	6f 0e       	add	r6, r31
     ce6:	71 1c       	adc	r7, r1
     ce8:	f8 01       	movw	r30, r16
     cea:	a0 80       	ld	r10, Z
     cec:	b1 80       	ldd	r11, Z+1	; 0x01
     cee:	26 ff       	sbrs	r18, 6
     cf0:	03 c0       	rjmp	.+6      	; 0xcf8 <vfprintf+0x17e>
     cf2:	65 2d       	mov	r22, r5
     cf4:	70 e0       	ldi	r23, 0x00	; 0
     cf6:	02 c0       	rjmp	.+4      	; 0xcfc <vfprintf+0x182>
     cf8:	6f ef       	ldi	r22, 0xFF	; 255
     cfa:	7f ef       	ldi	r23, 0xFF	; 255
     cfc:	c5 01       	movw	r24, r10
     cfe:	2c 87       	std	Y+12, r18	; 0x0c
     d00:	2a d1       	rcall	.+596    	; 0xf56 <strnlen_P>
     d02:	2c 01       	movw	r4, r24
     d04:	2c 85       	ldd	r18, Y+12	; 0x0c
     d06:	20 68       	ori	r18, 0x80	; 128
     d08:	22 2e       	mov	r2, r18
     d0a:	83 01       	movw	r16, r6
     d0c:	23 fc       	sbrc	r2, 3
     d0e:	19 c0       	rjmp	.+50     	; 0xd42 <vfprintf+0x1c8>
     d10:	83 2d       	mov	r24, r3
     d12:	90 e0       	ldi	r25, 0x00	; 0
     d14:	48 16       	cp	r4, r24
     d16:	59 06       	cpc	r5, r25
     d18:	a0 f4       	brcc	.+40     	; 0xd42 <vfprintf+0x1c8>
     d1a:	b7 01       	movw	r22, r14
     d1c:	80 e2       	ldi	r24, 0x20	; 32
     d1e:	90 e0       	ldi	r25, 0x00	; 0
     d20:	30 d1       	rcall	.+608    	; 0xf82 <fputc>
     d22:	3a 94       	dec	r3
     d24:	f5 cf       	rjmp	.-22     	; 0xd10 <vfprintf+0x196>
     d26:	f5 01       	movw	r30, r10
     d28:	27 fc       	sbrc	r2, 7
     d2a:	85 91       	lpm	r24, Z+
     d2c:	27 fe       	sbrs	r2, 7
     d2e:	81 91       	ld	r24, Z+
     d30:	5f 01       	movw	r10, r30
     d32:	b7 01       	movw	r22, r14
     d34:	90 e0       	ldi	r25, 0x00	; 0
     d36:	25 d1       	rcall	.+586    	; 0xf82 <fputc>
     d38:	31 10       	cpse	r3, r1
     d3a:	3a 94       	dec	r3
     d3c:	f1 e0       	ldi	r31, 0x01	; 1
     d3e:	4f 1a       	sub	r4, r31
     d40:	51 08       	sbc	r5, r1
     d42:	41 14       	cp	r4, r1
     d44:	51 04       	cpc	r5, r1
     d46:	79 f7       	brne	.-34     	; 0xd26 <vfprintf+0x1ac>
     d48:	de c0       	rjmp	.+444    	; 0xf06 <vfprintf+0x38c>
     d4a:	84 36       	cpi	r24, 0x64	; 100
     d4c:	11 f0       	breq	.+4      	; 0xd52 <vfprintf+0x1d8>
     d4e:	89 36       	cpi	r24, 0x69	; 105
     d50:	31 f5       	brne	.+76     	; 0xd9e <vfprintf+0x224>
     d52:	f8 01       	movw	r30, r16
     d54:	27 ff       	sbrs	r18, 7
     d56:	07 c0       	rjmp	.+14     	; 0xd66 <vfprintf+0x1ec>
     d58:	60 81       	ld	r22, Z
     d5a:	71 81       	ldd	r23, Z+1	; 0x01
     d5c:	82 81       	ldd	r24, Z+2	; 0x02
     d5e:	93 81       	ldd	r25, Z+3	; 0x03
     d60:	0c 5f       	subi	r16, 0xFC	; 252
     d62:	1f 4f       	sbci	r17, 0xFF	; 255
     d64:	08 c0       	rjmp	.+16     	; 0xd76 <vfprintf+0x1fc>
     d66:	60 81       	ld	r22, Z
     d68:	71 81       	ldd	r23, Z+1	; 0x01
     d6a:	07 2e       	mov	r0, r23
     d6c:	00 0c       	add	r0, r0
     d6e:	88 0b       	sbc	r24, r24
     d70:	99 0b       	sbc	r25, r25
     d72:	0e 5f       	subi	r16, 0xFE	; 254
     d74:	1f 4f       	sbci	r17, 0xFF	; 255
     d76:	2f 76       	andi	r18, 0x6F	; 111
     d78:	72 2e       	mov	r7, r18
     d7a:	97 ff       	sbrs	r25, 7
     d7c:	09 c0       	rjmp	.+18     	; 0xd90 <vfprintf+0x216>
     d7e:	90 95       	com	r25
     d80:	80 95       	com	r24
     d82:	70 95       	com	r23
     d84:	61 95       	neg	r22
     d86:	7f 4f       	sbci	r23, 0xFF	; 255
     d88:	8f 4f       	sbci	r24, 0xFF	; 255
     d8a:	9f 4f       	sbci	r25, 0xFF	; 255
     d8c:	20 68       	ori	r18, 0x80	; 128
     d8e:	72 2e       	mov	r7, r18
     d90:	2a e0       	ldi	r18, 0x0A	; 10
     d92:	30 e0       	ldi	r19, 0x00	; 0
     d94:	a4 01       	movw	r20, r8
     d96:	2d d1       	rcall	.+602    	; 0xff2 <__ultoa_invert>
     d98:	a8 2e       	mov	r10, r24
     d9a:	a8 18       	sub	r10, r8
     d9c:	43 c0       	rjmp	.+134    	; 0xe24 <vfprintf+0x2aa>
     d9e:	85 37       	cpi	r24, 0x75	; 117
     da0:	29 f4       	brne	.+10     	; 0xdac <vfprintf+0x232>
     da2:	2f 7e       	andi	r18, 0xEF	; 239
     da4:	b2 2e       	mov	r11, r18
     da6:	2a e0       	ldi	r18, 0x0A	; 10
     da8:	30 e0       	ldi	r19, 0x00	; 0
     daa:	25 c0       	rjmp	.+74     	; 0xdf6 <vfprintf+0x27c>
     dac:	f2 2f       	mov	r31, r18
     dae:	f9 7f       	andi	r31, 0xF9	; 249
     db0:	bf 2e       	mov	r11, r31
     db2:	8f 36       	cpi	r24, 0x6F	; 111
     db4:	c1 f0       	breq	.+48     	; 0xde6 <vfprintf+0x26c>
     db6:	18 f4       	brcc	.+6      	; 0xdbe <vfprintf+0x244>
     db8:	88 35       	cpi	r24, 0x58	; 88
     dba:	79 f0       	breq	.+30     	; 0xdda <vfprintf+0x260>
     dbc:	ad c0       	rjmp	.+346    	; 0xf18 <vfprintf+0x39e>
     dbe:	80 37       	cpi	r24, 0x70	; 112
     dc0:	19 f0       	breq	.+6      	; 0xdc8 <vfprintf+0x24e>
     dc2:	88 37       	cpi	r24, 0x78	; 120
     dc4:	21 f0       	breq	.+8      	; 0xdce <vfprintf+0x254>
     dc6:	a8 c0       	rjmp	.+336    	; 0xf18 <vfprintf+0x39e>
     dc8:	2f 2f       	mov	r18, r31
     dca:	20 61       	ori	r18, 0x10	; 16
     dcc:	b2 2e       	mov	r11, r18
     dce:	b4 fe       	sbrs	r11, 4
     dd0:	0d c0       	rjmp	.+26     	; 0xdec <vfprintf+0x272>
     dd2:	8b 2d       	mov	r24, r11
     dd4:	84 60       	ori	r24, 0x04	; 4
     dd6:	b8 2e       	mov	r11, r24
     dd8:	09 c0       	rjmp	.+18     	; 0xdec <vfprintf+0x272>
     dda:	24 ff       	sbrs	r18, 4
     ddc:	0a c0       	rjmp	.+20     	; 0xdf2 <vfprintf+0x278>
     dde:	9f 2f       	mov	r25, r31
     de0:	96 60       	ori	r25, 0x06	; 6
     de2:	b9 2e       	mov	r11, r25
     de4:	06 c0       	rjmp	.+12     	; 0xdf2 <vfprintf+0x278>
     de6:	28 e0       	ldi	r18, 0x08	; 8
     de8:	30 e0       	ldi	r19, 0x00	; 0
     dea:	05 c0       	rjmp	.+10     	; 0xdf6 <vfprintf+0x27c>
     dec:	20 e1       	ldi	r18, 0x10	; 16
     dee:	30 e0       	ldi	r19, 0x00	; 0
     df0:	02 c0       	rjmp	.+4      	; 0xdf6 <vfprintf+0x27c>
     df2:	20 e1       	ldi	r18, 0x10	; 16
     df4:	32 e0       	ldi	r19, 0x02	; 2
     df6:	f8 01       	movw	r30, r16
     df8:	b7 fe       	sbrs	r11, 7
     dfa:	07 c0       	rjmp	.+14     	; 0xe0a <vfprintf+0x290>
     dfc:	60 81       	ld	r22, Z
     dfe:	71 81       	ldd	r23, Z+1	; 0x01
     e00:	82 81       	ldd	r24, Z+2	; 0x02
     e02:	93 81       	ldd	r25, Z+3	; 0x03
     e04:	0c 5f       	subi	r16, 0xFC	; 252
     e06:	1f 4f       	sbci	r17, 0xFF	; 255
     e08:	06 c0       	rjmp	.+12     	; 0xe16 <vfprintf+0x29c>
     e0a:	60 81       	ld	r22, Z
     e0c:	71 81       	ldd	r23, Z+1	; 0x01
     e0e:	80 e0       	ldi	r24, 0x00	; 0
     e10:	90 e0       	ldi	r25, 0x00	; 0
     e12:	0e 5f       	subi	r16, 0xFE	; 254
     e14:	1f 4f       	sbci	r17, 0xFF	; 255
     e16:	a4 01       	movw	r20, r8
     e18:	ec d0       	rcall	.+472    	; 0xff2 <__ultoa_invert>
     e1a:	a8 2e       	mov	r10, r24
     e1c:	a8 18       	sub	r10, r8
     e1e:	fb 2d       	mov	r31, r11
     e20:	ff 77       	andi	r31, 0x7F	; 127
     e22:	7f 2e       	mov	r7, r31
     e24:	76 fe       	sbrs	r7, 6
     e26:	0b c0       	rjmp	.+22     	; 0xe3e <vfprintf+0x2c4>
     e28:	37 2d       	mov	r19, r7
     e2a:	3e 7f       	andi	r19, 0xFE	; 254
     e2c:	a5 14       	cp	r10, r5
     e2e:	50 f4       	brcc	.+20     	; 0xe44 <vfprintf+0x2ca>
     e30:	74 fe       	sbrs	r7, 4
     e32:	0a c0       	rjmp	.+20     	; 0xe48 <vfprintf+0x2ce>
     e34:	72 fc       	sbrc	r7, 2
     e36:	08 c0       	rjmp	.+16     	; 0xe48 <vfprintf+0x2ce>
     e38:	37 2d       	mov	r19, r7
     e3a:	3e 7e       	andi	r19, 0xEE	; 238
     e3c:	05 c0       	rjmp	.+10     	; 0xe48 <vfprintf+0x2ce>
     e3e:	ba 2c       	mov	r11, r10
     e40:	37 2d       	mov	r19, r7
     e42:	03 c0       	rjmp	.+6      	; 0xe4a <vfprintf+0x2d0>
     e44:	ba 2c       	mov	r11, r10
     e46:	01 c0       	rjmp	.+2      	; 0xe4a <vfprintf+0x2d0>
     e48:	b5 2c       	mov	r11, r5
     e4a:	34 ff       	sbrs	r19, 4
     e4c:	0d c0       	rjmp	.+26     	; 0xe68 <vfprintf+0x2ee>
     e4e:	fe 01       	movw	r30, r28
     e50:	ea 0d       	add	r30, r10
     e52:	f1 1d       	adc	r31, r1
     e54:	80 81       	ld	r24, Z
     e56:	80 33       	cpi	r24, 0x30	; 48
     e58:	11 f4       	brne	.+4      	; 0xe5e <vfprintf+0x2e4>
     e5a:	39 7e       	andi	r19, 0xE9	; 233
     e5c:	09 c0       	rjmp	.+18     	; 0xe70 <vfprintf+0x2f6>
     e5e:	32 ff       	sbrs	r19, 2
     e60:	06 c0       	rjmp	.+12     	; 0xe6e <vfprintf+0x2f4>
     e62:	b3 94       	inc	r11
     e64:	b3 94       	inc	r11
     e66:	04 c0       	rjmp	.+8      	; 0xe70 <vfprintf+0x2f6>
     e68:	83 2f       	mov	r24, r19
     e6a:	86 78       	andi	r24, 0x86	; 134
     e6c:	09 f0       	breq	.+2      	; 0xe70 <vfprintf+0x2f6>
     e6e:	b3 94       	inc	r11
     e70:	33 fd       	sbrc	r19, 3
     e72:	12 c0       	rjmp	.+36     	; 0xe98 <vfprintf+0x31e>
     e74:	30 ff       	sbrs	r19, 0
     e76:	06 c0       	rjmp	.+12     	; 0xe84 <vfprintf+0x30a>
     e78:	5a 2c       	mov	r5, r10
     e7a:	b3 14       	cp	r11, r3
     e7c:	18 f4       	brcc	.+6      	; 0xe84 <vfprintf+0x30a>
     e7e:	53 0c       	add	r5, r3
     e80:	5b 18       	sub	r5, r11
     e82:	b3 2c       	mov	r11, r3
     e84:	b3 14       	cp	r11, r3
     e86:	60 f4       	brcc	.+24     	; 0xea0 <vfprintf+0x326>
     e88:	b7 01       	movw	r22, r14
     e8a:	80 e2       	ldi	r24, 0x20	; 32
     e8c:	90 e0       	ldi	r25, 0x00	; 0
     e8e:	3c 87       	std	Y+12, r19	; 0x0c
     e90:	78 d0       	rcall	.+240    	; 0xf82 <fputc>
     e92:	b3 94       	inc	r11
     e94:	3c 85       	ldd	r19, Y+12	; 0x0c
     e96:	f6 cf       	rjmp	.-20     	; 0xe84 <vfprintf+0x30a>
     e98:	b3 14       	cp	r11, r3
     e9a:	10 f4       	brcc	.+4      	; 0xea0 <vfprintf+0x326>
     e9c:	3b 18       	sub	r3, r11
     e9e:	01 c0       	rjmp	.+2      	; 0xea2 <vfprintf+0x328>
     ea0:	31 2c       	mov	r3, r1
     ea2:	34 ff       	sbrs	r19, 4
     ea4:	11 c0       	rjmp	.+34     	; 0xec8 <vfprintf+0x34e>
     ea6:	b7 01       	movw	r22, r14
     ea8:	80 e3       	ldi	r24, 0x30	; 48
     eaa:	90 e0       	ldi	r25, 0x00	; 0
     eac:	3c 87       	std	Y+12, r19	; 0x0c
     eae:	69 d0       	rcall	.+210    	; 0xf82 <fputc>
     eb0:	3c 85       	ldd	r19, Y+12	; 0x0c
     eb2:	32 ff       	sbrs	r19, 2
     eb4:	16 c0       	rjmp	.+44     	; 0xee2 <vfprintf+0x368>
     eb6:	31 fd       	sbrc	r19, 1
     eb8:	03 c0       	rjmp	.+6      	; 0xec0 <vfprintf+0x346>
     eba:	88 e7       	ldi	r24, 0x78	; 120
     ebc:	90 e0       	ldi	r25, 0x00	; 0
     ebe:	02 c0       	rjmp	.+4      	; 0xec4 <vfprintf+0x34a>
     ec0:	88 e5       	ldi	r24, 0x58	; 88
     ec2:	90 e0       	ldi	r25, 0x00	; 0
     ec4:	b7 01       	movw	r22, r14
     ec6:	0c c0       	rjmp	.+24     	; 0xee0 <vfprintf+0x366>
     ec8:	83 2f       	mov	r24, r19
     eca:	86 78       	andi	r24, 0x86	; 134
     ecc:	51 f0       	breq	.+20     	; 0xee2 <vfprintf+0x368>
     ece:	31 ff       	sbrs	r19, 1
     ed0:	02 c0       	rjmp	.+4      	; 0xed6 <vfprintf+0x35c>
     ed2:	8b e2       	ldi	r24, 0x2B	; 43
     ed4:	01 c0       	rjmp	.+2      	; 0xed8 <vfprintf+0x35e>
     ed6:	80 e2       	ldi	r24, 0x20	; 32
     ed8:	37 fd       	sbrc	r19, 7
     eda:	8d e2       	ldi	r24, 0x2D	; 45
     edc:	b7 01       	movw	r22, r14
     ede:	90 e0       	ldi	r25, 0x00	; 0
     ee0:	50 d0       	rcall	.+160    	; 0xf82 <fputc>
     ee2:	a5 14       	cp	r10, r5
     ee4:	30 f4       	brcc	.+12     	; 0xef2 <vfprintf+0x378>
     ee6:	b7 01       	movw	r22, r14
     ee8:	80 e3       	ldi	r24, 0x30	; 48
     eea:	90 e0       	ldi	r25, 0x00	; 0
     eec:	4a d0       	rcall	.+148    	; 0xf82 <fputc>
     eee:	5a 94       	dec	r5
     ef0:	f8 cf       	rjmp	.-16     	; 0xee2 <vfprintf+0x368>
     ef2:	aa 94       	dec	r10
     ef4:	f4 01       	movw	r30, r8
     ef6:	ea 0d       	add	r30, r10
     ef8:	f1 1d       	adc	r31, r1
     efa:	80 81       	ld	r24, Z
     efc:	b7 01       	movw	r22, r14
     efe:	90 e0       	ldi	r25, 0x00	; 0
     f00:	40 d0       	rcall	.+128    	; 0xf82 <fputc>
     f02:	a1 10       	cpse	r10, r1
     f04:	f6 cf       	rjmp	.-20     	; 0xef2 <vfprintf+0x378>
     f06:	33 20       	and	r3, r3
     f08:	09 f4       	brne	.+2      	; 0xf0c <vfprintf+0x392>
     f0a:	5d ce       	rjmp	.-838    	; 0xbc6 <vfprintf+0x4c>
     f0c:	b7 01       	movw	r22, r14
     f0e:	80 e2       	ldi	r24, 0x20	; 32
     f10:	90 e0       	ldi	r25, 0x00	; 0
     f12:	37 d0       	rcall	.+110    	; 0xf82 <fputc>
     f14:	3a 94       	dec	r3
     f16:	f7 cf       	rjmp	.-18     	; 0xf06 <vfprintf+0x38c>
     f18:	f7 01       	movw	r30, r14
     f1a:	86 81       	ldd	r24, Z+6	; 0x06
     f1c:	97 81       	ldd	r25, Z+7	; 0x07
     f1e:	02 c0       	rjmp	.+4      	; 0xf24 <vfprintf+0x3aa>
     f20:	8f ef       	ldi	r24, 0xFF	; 255
     f22:	9f ef       	ldi	r25, 0xFF	; 255
     f24:	2c 96       	adiw	r28, 0x0c	; 12
     f26:	0f b6       	in	r0, 0x3f	; 63
     f28:	f8 94       	cli
     f2a:	de bf       	out	0x3e, r29	; 62
     f2c:	0f be       	out	0x3f, r0	; 63
     f2e:	cd bf       	out	0x3d, r28	; 61
     f30:	df 91       	pop	r29
     f32:	cf 91       	pop	r28
     f34:	1f 91       	pop	r17
     f36:	0f 91       	pop	r16
     f38:	ff 90       	pop	r15
     f3a:	ef 90       	pop	r14
     f3c:	df 90       	pop	r13
     f3e:	cf 90       	pop	r12
     f40:	bf 90       	pop	r11
     f42:	af 90       	pop	r10
     f44:	9f 90       	pop	r9
     f46:	8f 90       	pop	r8
     f48:	7f 90       	pop	r7
     f4a:	6f 90       	pop	r6
     f4c:	5f 90       	pop	r5
     f4e:	4f 90       	pop	r4
     f50:	3f 90       	pop	r3
     f52:	2f 90       	pop	r2
     f54:	08 95       	ret

00000f56 <strnlen_P>:
     f56:	fc 01       	movw	r30, r24
     f58:	05 90       	lpm	r0, Z+
     f5a:	61 50       	subi	r22, 0x01	; 1
     f5c:	70 40       	sbci	r23, 0x00	; 0
     f5e:	01 10       	cpse	r0, r1
     f60:	d8 f7       	brcc	.-10     	; 0xf58 <strnlen_P+0x2>
     f62:	80 95       	com	r24
     f64:	90 95       	com	r25
     f66:	8e 0f       	add	r24, r30
     f68:	9f 1f       	adc	r25, r31
     f6a:	08 95       	ret

00000f6c <strnlen>:
     f6c:	fc 01       	movw	r30, r24
     f6e:	61 50       	subi	r22, 0x01	; 1
     f70:	70 40       	sbci	r23, 0x00	; 0
     f72:	01 90       	ld	r0, Z+
     f74:	01 10       	cpse	r0, r1
     f76:	d8 f7       	brcc	.-10     	; 0xf6e <strnlen+0x2>
     f78:	80 95       	com	r24
     f7a:	90 95       	com	r25
     f7c:	8e 0f       	add	r24, r30
     f7e:	9f 1f       	adc	r25, r31
     f80:	08 95       	ret

00000f82 <fputc>:
     f82:	0f 93       	push	r16
     f84:	1f 93       	push	r17
     f86:	cf 93       	push	r28
     f88:	df 93       	push	r29
     f8a:	fb 01       	movw	r30, r22
     f8c:	23 81       	ldd	r18, Z+3	; 0x03
     f8e:	21 fd       	sbrc	r18, 1
     f90:	03 c0       	rjmp	.+6      	; 0xf98 <fputc+0x16>
     f92:	8f ef       	ldi	r24, 0xFF	; 255
     f94:	9f ef       	ldi	r25, 0xFF	; 255
     f96:	28 c0       	rjmp	.+80     	; 0xfe8 <fputc+0x66>
     f98:	22 ff       	sbrs	r18, 2
     f9a:	16 c0       	rjmp	.+44     	; 0xfc8 <fputc+0x46>
     f9c:	46 81       	ldd	r20, Z+6	; 0x06
     f9e:	57 81       	ldd	r21, Z+7	; 0x07
     fa0:	24 81       	ldd	r18, Z+4	; 0x04
     fa2:	35 81       	ldd	r19, Z+5	; 0x05
     fa4:	42 17       	cp	r20, r18
     fa6:	53 07       	cpc	r21, r19
     fa8:	44 f4       	brge	.+16     	; 0xfba <fputc+0x38>
     faa:	a0 81       	ld	r26, Z
     fac:	b1 81       	ldd	r27, Z+1	; 0x01
     fae:	9d 01       	movw	r18, r26
     fb0:	2f 5f       	subi	r18, 0xFF	; 255
     fb2:	3f 4f       	sbci	r19, 0xFF	; 255
     fb4:	31 83       	std	Z+1, r19	; 0x01
     fb6:	20 83       	st	Z, r18
     fb8:	8c 93       	st	X, r24
     fba:	26 81       	ldd	r18, Z+6	; 0x06
     fbc:	37 81       	ldd	r19, Z+7	; 0x07
     fbe:	2f 5f       	subi	r18, 0xFF	; 255
     fc0:	3f 4f       	sbci	r19, 0xFF	; 255
     fc2:	37 83       	std	Z+7, r19	; 0x07
     fc4:	26 83       	std	Z+6, r18	; 0x06
     fc6:	10 c0       	rjmp	.+32     	; 0xfe8 <fputc+0x66>
     fc8:	eb 01       	movw	r28, r22
     fca:	09 2f       	mov	r16, r25
     fcc:	18 2f       	mov	r17, r24
     fce:	00 84       	ldd	r0, Z+8	; 0x08
     fd0:	f1 85       	ldd	r31, Z+9	; 0x09
     fd2:	e0 2d       	mov	r30, r0
     fd4:	19 95       	eicall
     fd6:	89 2b       	or	r24, r25
     fd8:	e1 f6       	brne	.-72     	; 0xf92 <fputc+0x10>
     fda:	8e 81       	ldd	r24, Y+6	; 0x06
     fdc:	9f 81       	ldd	r25, Y+7	; 0x07
     fde:	01 96       	adiw	r24, 0x01	; 1
     fe0:	9f 83       	std	Y+7, r25	; 0x07
     fe2:	8e 83       	std	Y+6, r24	; 0x06
     fe4:	81 2f       	mov	r24, r17
     fe6:	90 2f       	mov	r25, r16
     fe8:	df 91       	pop	r29
     fea:	cf 91       	pop	r28
     fec:	1f 91       	pop	r17
     fee:	0f 91       	pop	r16
     ff0:	08 95       	ret

00000ff2 <__ultoa_invert>:
     ff2:	fa 01       	movw	r30, r20
     ff4:	aa 27       	eor	r26, r26
     ff6:	28 30       	cpi	r18, 0x08	; 8
     ff8:	51 f1       	breq	.+84     	; 0x104e <__ultoa_invert+0x5c>
     ffa:	20 31       	cpi	r18, 0x10	; 16
     ffc:	81 f1       	breq	.+96     	; 0x105e <__ultoa_invert+0x6c>
     ffe:	e8 94       	clt
    1000:	6f 93       	push	r22
    1002:	6e 7f       	andi	r22, 0xFE	; 254
    1004:	6e 5f       	subi	r22, 0xFE	; 254
    1006:	7f 4f       	sbci	r23, 0xFF	; 255
    1008:	8f 4f       	sbci	r24, 0xFF	; 255
    100a:	9f 4f       	sbci	r25, 0xFF	; 255
    100c:	af 4f       	sbci	r26, 0xFF	; 255
    100e:	b1 e0       	ldi	r27, 0x01	; 1
    1010:	3e d0       	rcall	.+124    	; 0x108e <__ultoa_invert+0x9c>
    1012:	b4 e0       	ldi	r27, 0x04	; 4
    1014:	3c d0       	rcall	.+120    	; 0x108e <__ultoa_invert+0x9c>
    1016:	67 0f       	add	r22, r23
    1018:	78 1f       	adc	r23, r24
    101a:	89 1f       	adc	r24, r25
    101c:	9a 1f       	adc	r25, r26
    101e:	a1 1d       	adc	r26, r1
    1020:	68 0f       	add	r22, r24
    1022:	79 1f       	adc	r23, r25
    1024:	8a 1f       	adc	r24, r26
    1026:	91 1d       	adc	r25, r1
    1028:	a1 1d       	adc	r26, r1
    102a:	6a 0f       	add	r22, r26
    102c:	71 1d       	adc	r23, r1
    102e:	81 1d       	adc	r24, r1
    1030:	91 1d       	adc	r25, r1
    1032:	a1 1d       	adc	r26, r1
    1034:	20 d0       	rcall	.+64     	; 0x1076 <__ultoa_invert+0x84>
    1036:	09 f4       	brne	.+2      	; 0x103a <__ultoa_invert+0x48>
    1038:	68 94       	set
    103a:	3f 91       	pop	r19
    103c:	2a e0       	ldi	r18, 0x0A	; 10
    103e:	26 9f       	mul	r18, r22
    1040:	11 24       	eor	r1, r1
    1042:	30 19       	sub	r19, r0
    1044:	30 5d       	subi	r19, 0xD0	; 208
    1046:	31 93       	st	Z+, r19
    1048:	de f6       	brtc	.-74     	; 0x1000 <__ultoa_invert+0xe>
    104a:	cf 01       	movw	r24, r30
    104c:	08 95       	ret
    104e:	46 2f       	mov	r20, r22
    1050:	47 70       	andi	r20, 0x07	; 7
    1052:	40 5d       	subi	r20, 0xD0	; 208
    1054:	41 93       	st	Z+, r20
    1056:	b3 e0       	ldi	r27, 0x03	; 3
    1058:	0f d0       	rcall	.+30     	; 0x1078 <__ultoa_invert+0x86>
    105a:	c9 f7       	brne	.-14     	; 0x104e <__ultoa_invert+0x5c>
    105c:	f6 cf       	rjmp	.-20     	; 0x104a <__ultoa_invert+0x58>
    105e:	46 2f       	mov	r20, r22
    1060:	4f 70       	andi	r20, 0x0F	; 15
    1062:	40 5d       	subi	r20, 0xD0	; 208
    1064:	4a 33       	cpi	r20, 0x3A	; 58
    1066:	18 f0       	brcs	.+6      	; 0x106e <__ultoa_invert+0x7c>
    1068:	49 5d       	subi	r20, 0xD9	; 217
    106a:	31 fd       	sbrc	r19, 1
    106c:	40 52       	subi	r20, 0x20	; 32
    106e:	41 93       	st	Z+, r20
    1070:	02 d0       	rcall	.+4      	; 0x1076 <__ultoa_invert+0x84>
    1072:	a9 f7       	brne	.-22     	; 0x105e <__ultoa_invert+0x6c>
    1074:	ea cf       	rjmp	.-44     	; 0x104a <__ultoa_invert+0x58>
    1076:	b4 e0       	ldi	r27, 0x04	; 4
    1078:	a6 95       	lsr	r26
    107a:	97 95       	ror	r25
    107c:	87 95       	ror	r24
    107e:	77 95       	ror	r23
    1080:	67 95       	ror	r22
    1082:	ba 95       	dec	r27
    1084:	c9 f7       	brne	.-14     	; 0x1078 <__ultoa_invert+0x86>
    1086:	00 97       	sbiw	r24, 0x00	; 0
    1088:	61 05       	cpc	r22, r1
    108a:	71 05       	cpc	r23, r1
    108c:	08 95       	ret
    108e:	9b 01       	movw	r18, r22
    1090:	ac 01       	movw	r20, r24
    1092:	0a 2e       	mov	r0, r26
    1094:	06 94       	lsr	r0
    1096:	57 95       	ror	r21
    1098:	47 95       	ror	r20
    109a:	37 95       	ror	r19
    109c:	27 95       	ror	r18
    109e:	ba 95       	dec	r27
    10a0:	c9 f7       	brne	.-14     	; 0x1094 <__ultoa_invert+0xa2>
    10a2:	62 0f       	add	r22, r18
    10a4:	73 1f       	adc	r23, r19
    10a6:	84 1f       	adc	r24, r20
    10a8:	95 1f       	adc	r25, r21
    10aa:	a0 1d       	adc	r26, r0
    10ac:	08 95       	ret

000010ae <_exit>:
    10ae:	f8 94       	cli

000010b0 <__stop_program>:
    10b0:	ff cf       	rjmp	.-2      	; 0x10b0 <__stop_program>
